

Microchip Technology PIC LITE Macro Assembler V1.37 build -260352376 
                                                                                               Tue May 23 00:01:09 2017

Microchip Technology Omniscient Code Generator v1.37 (Free mode) build 201603110536
     1                           	processor	16F1939
     2                           	opt	pw 120
     3                           	opt	lm
     4                           	psect	stringtext,global,class=STRCODE,delta=2
     5                           	psect	cinit,global,class=CODE,merge=1,delta=2
     6                           	psect	bssBANK0,global,class=BANK0,space=1,delta=1
     7                           	psect	cstackCOMMON,global,class=COMMON,space=1,delta=1
     8                           	psect	cstackBANK0,global,class=BANK0,space=1,delta=1
     9                           	psect	maintext,global,class=CODE,merge=1,split=1,delta=2
    10                           	psect	text1,local,class=CODE,merge=1,delta=2
    11                           	psect	text2,local,class=CODE,merge=1,delta=2
    12                           	psect	text3,local,class=CODE,merge=1,delta=2
    13                           	psect	text4,local,class=CODE,merge=1,delta=2
    14                           	psect	text5,local,class=CODE,merge=1,delta=2
    15                           	psect	text6,local,class=CODE,merge=1,delta=2
    16                           	psect	text7,local,class=CODE,merge=1,delta=2
    17                           	psect	text8,local,class=CODE,merge=1,delta=2
    18                           	psect	text9,local,class=CODE,merge=1,delta=2
    19                           	psect	text10,local,class=CODE,merge=1,delta=2
    20                           	psect	text11,local,class=CODE,merge=1,delta=2
    21                           	dabs	1,0x7E,2
    22  0000                     	;# 
    23  0001                     	;# 
    24  0002                     	;# 
    25  0003                     	;# 
    26  0004                     	;# 
    27  0005                     	;# 
    28  0006                     	;# 
    29  0007                     	;# 
    30  0008                     	;# 
    31  0009                     	;# 
    32  000A                     	;# 
    33  000B                     	;# 
    34  000C                     	;# 
    35  000D                     	;# 
    36  000E                     	;# 
    37  000F                     	;# 
    38  0010                     	;# 
    39  0011                     	;# 
    40  0012                     	;# 
    41  0013                     	;# 
    42  0015                     	;# 
    43  0016                     	;# 
    44  0016                     	;# 
    45  0017                     	;# 
    46  0018                     	;# 
    47  0019                     	;# 
    48  001A                     	;# 
    49  001B                     	;# 
    50  001C                     	;# 
    51  001E                     	;# 
    52  001F                     	;# 
    53  008C                     	;# 
    54  008D                     	;# 
    55  008E                     	;# 
    56  008F                     	;# 
    57  0090                     	;# 
    58  0091                     	;# 
    59  0092                     	;# 
    60  0093                     	;# 
    61  0095                     	;# 
    62  0096                     	;# 
    63  0097                     	;# 
    64  0098                     	;# 
    65  0099                     	;# 
    66  009A                     	;# 
    67  009B                     	;# 
    68  009B                     	;# 
    69  009C                     	;# 
    70  009D                     	;# 
    71  009E                     	;# 
    72  010C                     	;# 
    73  010D                     	;# 
    74  010E                     	;# 
    75  010F                     	;# 
    76  0110                     	;# 
    77  0111                     	;# 
    78  0112                     	;# 
    79  0113                     	;# 
    80  0114                     	;# 
    81  0115                     	;# 
    82  0116                     	;# 
    83  0117                     	;# 
    84  0118                     	;# 
    85  0119                     	;# 
    86  011A                     	;# 
    87  011B                     	;# 
    88  011D                     	;# 
    89  018C                     	;# 
    90  018D                     	;# 
    91  018F                     	;# 
    92  0190                     	;# 
    93  0191                     	;# 
    94  0191                     	;# 
    95  0192                     	;# 
    96  0193                     	;# 
    97  0193                     	;# 
    98  0193                     	;# 
    99  0194                     	;# 
   100  0195                     	;# 
   101  0196                     	;# 
   102  0199                     	;# 
   103  019A                     	;# 
   104  019B                     	;# 
   105  019B                     	;# 
   106  019B                     	;# 
   107  019B                     	;# 
   108  019C                     	;# 
   109  019C                     	;# 
   110  019D                     	;# 
   111  019E                     	;# 
   112  019F                     	;# 
   113  020D                     	;# 
   114  0210                     	;# 
   115  0211                     	;# 
   116  0212                     	;# 
   117  0213                     	;# 
   118  0214                     	;# 
   119  0215                     	;# 
   120  0215                     	;# 
   121  0216                     	;# 
   122  0217                     	;# 
   123  0291                     	;# 
   124  0291                     	;# 
   125  0292                     	;# 
   126  0293                     	;# 
   127  0294                     	;# 
   128  0295                     	;# 
   129  0295                     	;# 
   130  0296                     	;# 
   131  0298                     	;# 
   132  0298                     	;# 
   133  0299                     	;# 
   134  029A                     	;# 
   135  029B                     	;# 
   136  029C                     	;# 
   137  029C                     	;# 
   138  029D                     	;# 
   139  029E                     	;# 
   140  029F                     	;# 
   141  0311                     	;# 
   142  0311                     	;# 
   143  0312                     	;# 
   144  0313                     	;# 
   145  0314                     	;# 
   146  0315                     	;# 
   147  0315                     	;# 
   148  0316                     	;# 
   149  0318                     	;# 
   150  0318                     	;# 
   151  0319                     	;# 
   152  031A                     	;# 
   153  031C                     	;# 
   154  031C                     	;# 
   155  031D                     	;# 
   156  031E                     	;# 
   157  0394                     	;# 
   158  0395                     	;# 
   159  0396                     	;# 
   160  0415                     	;# 
   161  0416                     	;# 
   162  0417                     	;# 
   163  041C                     	;# 
   164  041D                     	;# 
   165  041E                     	;# 
   166  0791                     	;# 
   167  0792                     	;# 
   168  0793                     	;# 
   169  0794                     	;# 
   170  0795                     	;# 
   171  0798                     	;# 
   172  0799                     	;# 
   173  079A                     	;# 
   174  07A0                     	;# 
   175  07A1                     	;# 
   176  07A2                     	;# 
   177  07A3                     	;# 
   178  07A4                     	;# 
   179  07A5                     	;# 
   180  07A6                     	;# 
   181  07A7                     	;# 
   182  07A8                     	;# 
   183  07A9                     	;# 
   184  07AA                     	;# 
   185  07AB                     	;# 
   186  0FE4                     	;# 
   187  0FE5                     	;# 
   188  0FE6                     	;# 
   189  0FE7                     	;# 
   190  0FE8                     	;# 
   191  0FE9                     	;# 
   192  0FEA                     	;# 
   193  0FEB                     	;# 
   194  0FED                     	;# 
   195  0FEE                     	;# 
   196  0FEF                     	;# 
   197  0000                     	;# 
   198  0001                     	;# 
   199  0002                     	;# 
   200  0003                     	;# 
   201  0004                     	;# 
   202  0005                     	;# 
   203  0006                     	;# 
   204  0007                     	;# 
   205  0008                     	;# 
   206  0009                     	;# 
   207  000A                     	;# 
   208  000B                     	;# 
   209  000C                     	;# 
   210  000D                     	;# 
   211  000E                     	;# 
   212  000F                     	;# 
   213  0010                     	;# 
   214  0011                     	;# 
   215  0012                     	;# 
   216  0013                     	;# 
   217  0015                     	;# 
   218  0016                     	;# 
   219  0016                     	;# 
   220  0017                     	;# 
   221  0018                     	;# 
   222  0019                     	;# 
   223  001A                     	;# 
   224  001B                     	;# 
   225  001C                     	;# 
   226  001E                     	;# 
   227  001F                     	;# 
   228  008C                     	;# 
   229  008D                     	;# 
   230  008E                     	;# 
   231  008F                     	;# 
   232  0090                     	;# 
   233  0091                     	;# 
   234  0092                     	;# 
   235  0093                     	;# 
   236  0095                     	;# 
   237  0096                     	;# 
   238  0097                     	;# 
   239  0098                     	;# 
   240  0099                     	;# 
   241  009A                     	;# 
   242  009B                     	;# 
   243  009B                     	;# 
   244  009C                     	;# 
   245  009D                     	;# 
   246  009E                     	;# 
   247  010C                     	;# 
   248  010D                     	;# 
   249  010E                     	;# 
   250  010F                     	;# 
   251  0110                     	;# 
   252  0111                     	;# 
   253  0112                     	;# 
   254  0113                     	;# 
   255  0114                     	;# 
   256  0115                     	;# 
   257  0116                     	;# 
   258  0117                     	;# 
   259  0118                     	;# 
   260  0119                     	;# 
   261  011A                     	;# 
   262  011B                     	;# 
   263  011D                     	;# 
   264  018C                     	;# 
   265  018D                     	;# 
   266  018F                     	;# 
   267  0190                     	;# 
   268  0191                     	;# 
   269  0191                     	;# 
   270  0192                     	;# 
   271  0193                     	;# 
   272  0193                     	;# 
   273  0193                     	;# 
   274  0194                     	;# 
   275  0195                     	;# 
   276  0196                     	;# 
   277  0199                     	;# 
   278  019A                     	;# 
   279  019B                     	;# 
   280  019B                     	;# 
   281  019B                     	;# 
   282  019B                     	;# 
   283  019C                     	;# 
   284  019C                     	;# 
   285  019D                     	;# 
   286  019E                     	;# 
   287  019F                     	;# 
   288  020D                     	;# 
   289  0210                     	;# 
   290  0211                     	;# 
   291  0212                     	;# 
   292  0213                     	;# 
   293  0214                     	;# 
   294  0215                     	;# 
   295  0215                     	;# 
   296  0216                     	;# 
   297  0217                     	;# 
   298  0291                     	;# 
   299  0291                     	;# 
   300  0292                     	;# 
   301  0293                     	;# 
   302  0294                     	;# 
   303  0295                     	;# 
   304  0295                     	;# 
   305  0296                     	;# 
   306  0298                     	;# 
   307  0298                     	;# 
   308  0299                     	;# 
   309  029A                     	;# 
   310  029B                     	;# 
   311  029C                     	;# 
   312  029C                     	;# 
   313  029D                     	;# 
   314  029E                     	;# 
   315  029F                     	;# 
   316  0311                     	;# 
   317  0311                     	;# 
   318  0312                     	;# 
   319  0313                     	;# 
   320  0314                     	;# 
   321  0315                     	;# 
   322  0315                     	;# 
   323  0316                     	;# 
   324  0318                     	;# 
   325  0318                     	;# 
   326  0319                     	;# 
   327  031A                     	;# 
   328  031C                     	;# 
   329  031C                     	;# 
   330  031D                     	;# 
   331  031E                     	;# 
   332  0394                     	;# 
   333  0395                     	;# 
   334  0396                     	;# 
   335  0415                     	;# 
   336  0416                     	;# 
   337  0417                     	;# 
   338  041C                     	;# 
   339  041D                     	;# 
   340  041E                     	;# 
   341  0791                     	;# 
   342  0792                     	;# 
   343  0793                     	;# 
   344  0794                     	;# 
   345  0795                     	;# 
   346  0798                     	;# 
   347  0799                     	;# 
   348  079A                     	;# 
   349  07A0                     	;# 
   350  07A1                     	;# 
   351  07A2                     	;# 
   352  07A3                     	;# 
   353  07A4                     	;# 
   354  07A5                     	;# 
   355  07A6                     	;# 
   356  07A7                     	;# 
   357  07A8                     	;# 
   358  07A9                     	;# 
   359  07AA                     	;# 
   360  07AB                     	;# 
   361  0FE4                     	;# 
   362  0FE5                     	;# 
   363  0FE6                     	;# 
   364  0FE7                     	;# 
   365  0FE8                     	;# 
   366  0FE9                     	;# 
   367  0FEA                     	;# 
   368  0FEB                     	;# 
   369  0FED                     	;# 
   370  0FEE                     	;# 
   371  0FEF                     	;# 
   372  0000                     	;# 
   373  0001                     	;# 
   374  0002                     	;# 
   375  0003                     	;# 
   376  0004                     	;# 
   377  0005                     	;# 
   378  0006                     	;# 
   379  0007                     	;# 
   380  0008                     	;# 
   381  0009                     	;# 
   382  000A                     	;# 
   383  000B                     	;# 
   384  000C                     	;# 
   385  000D                     	;# 
   386  000E                     	;# 
   387  000F                     	;# 
   388  0010                     	;# 
   389  0011                     	;# 
   390  0012                     	;# 
   391  0013                     	;# 
   392  0015                     	;# 
   393  0016                     	;# 
   394  0016                     	;# 
   395  0017                     	;# 
   396  0018                     	;# 
   397  0019                     	;# 
   398  001A                     	;# 
   399  001B                     	;# 
   400  001C                     	;# 
   401  001E                     	;# 
   402  001F                     	;# 
   403  008C                     	;# 
   404  008D                     	;# 
   405  008E                     	;# 
   406  008F                     	;# 
   407  0090                     	;# 
   408  0091                     	;# 
   409  0092                     	;# 
   410  0093                     	;# 
   411  0095                     	;# 
   412  0096                     	;# 
   413  0097                     	;# 
   414  0098                     	;# 
   415  0099                     	;# 
   416  009A                     	;# 
   417  009B                     	;# 
   418  009B                     	;# 
   419  009C                     	;# 
   420  009D                     	;# 
   421  009E                     	;# 
   422  010C                     	;# 
   423  010D                     	;# 
   424  010E                     	;# 
   425  010F                     	;# 
   426  0110                     	;# 
   427  0111                     	;# 
   428  0112                     	;# 
   429  0113                     	;# 
   430  0114                     	;# 
   431  0115                     	;# 
   432  0116                     	;# 
   433  0117                     	;# 
   434  0118                     	;# 
   435  0119                     	;# 
   436  011A                     	;# 
   437  011B                     	;# 
   438  011D                     	;# 
   439  018C                     	;# 
   440  018D                     	;# 
   441  018F                     	;# 
   442  0190                     	;# 
   443  0191                     	;# 
   444  0191                     	;# 
   445  0192                     	;# 
   446  0193                     	;# 
   447  0193                     	;# 
   448  0193                     	;# 
   449  0194                     	;# 
   450  0195                     	;# 
   451  0196                     	;# 
   452  0199                     	;# 
   453  019A                     	;# 
   454  019B                     	;# 
   455  019B                     	;# 
   456  019B                     	;# 
   457  019B                     	;# 
   458  019C                     	;# 
   459  019C                     	;# 
   460  019D                     	;# 
   461  019E                     	;# 
   462  019F                     	;# 
   463  020D                     	;# 
   464  0210                     	;# 
   465  0211                     	;# 
   466  0212                     	;# 
   467  0213                     	;# 
   468  0214                     	;# 
   469  0215                     	;# 
   470  0215                     	;# 
   471  0216                     	;# 
   472  0217                     	;# 
   473  0291                     	;# 
   474  0291                     	;# 
   475  0292                     	;# 
   476  0293                     	;# 
   477  0294                     	;# 
   478  0295                     	;# 
   479  0295                     	;# 
   480  0296                     	;# 
   481  0298                     	;# 
   482  0298                     	;# 
   483  0299                     	;# 
   484  029A                     	;# 
   485  029B                     	;# 
   486  029C                     	;# 
   487  029C                     	;# 
   488  029D                     	;# 
   489  029E                     	;# 
   490  029F                     	;# 
   491  0311                     	;# 
   492  0311                     	;# 
   493  0312                     	;# 
   494  0313                     	;# 
   495  0314                     	;# 
   496  0315                     	;# 
   497  0315                     	;# 
   498  0316                     	;# 
   499  0318                     	;# 
   500  0318                     	;# 
   501  0319                     	;# 
   502  031A                     	;# 
   503  031C                     	;# 
   504  031C                     	;# 
   505  031D                     	;# 
   506  031E                     	;# 
   507  0394                     	;# 
   508  0395                     	;# 
   509  0396                     	;# 
   510  0415                     	;# 
   511  0416                     	;# 
   512  0417                     	;# 
   513  041C                     	;# 
   514  041D                     	;# 
   515  041E                     	;# 
   516  0791                     	;# 
   517  0792                     	;# 
   518  0793                     	;# 
   519  0794                     	;# 
   520  0795                     	;# 
   521  0798                     	;# 
   522  0799                     	;# 
   523  079A                     	;# 
   524  07A0                     	;# 
   525  07A1                     	;# 
   526  07A2                     	;# 
   527  07A3                     	;# 
   528  07A4                     	;# 
   529  07A5                     	;# 
   530  07A6                     	;# 
   531  07A7                     	;# 
   532  07A8                     	;# 
   533  07A9                     	;# 
   534  07AA                     	;# 
   535  07AB                     	;# 
   536  0FE4                     	;# 
   537  0FE5                     	;# 
   538  0FE6                     	;# 
   539  0FE7                     	;# 
   540  0FE8                     	;# 
   541  0FE9                     	;# 
   542  0FEA                     	;# 
   543  0FEB                     	;# 
   544  0FED                     	;# 
   545  0FEE                     	;# 
   546  0FEF                     	;# 
   547                           
   548                           	psect	stringtext
   549  0800                     __pstringtext:	
   550  0800                     _Font:	
   551  0800  3400               	retlw	0
   552  0801  3400               	retlw	0
   553  0802  3400               	retlw	0
   554  0803  3400               	retlw	0
   555  0804  3400               	retlw	0
   556  0805  3400               	retlw	0
   557  0806  3400               	retlw	0
   558  0807  344F               	retlw	79
   559  0808  3400               	retlw	0
   560  0809  3400               	retlw	0
   561  080A  3400               	retlw	0
   562  080B  3407               	retlw	7
   563  080C  3400               	retlw	0
   564  080D  3407               	retlw	7
   565  080E  3400               	retlw	0
   566  080F  3414               	retlw	20
   567  0810  347F               	retlw	127
   568  0811  3414               	retlw	20
   569  0812  347F               	retlw	127
   570  0813  3414               	retlw	20
   571  0814  3424               	retlw	36
   572  0815  342A               	retlw	42
   573  0816  347F               	retlw	127
   574  0817  342A               	retlw	42
   575  0818  3412               	retlw	18
   576  0819  3423               	retlw	35
   577  081A  3413               	retlw	19
   578  081B  3408               	retlw	8
   579  081C  3464               	retlw	100
   580  081D  3462               	retlw	98
   581  081E  3436               	retlw	54
   582  081F  3449               	retlw	73
   583  0820  3455               	retlw	85
   584  0821  3422               	retlw	34
   585  0822  3450               	retlw	80
   586  0823  3400               	retlw	0
   587  0824  3405               	retlw	5
   588  0825  3403               	retlw	3
   589  0826  3400               	retlw	0
   590  0827  3400               	retlw	0
   591  0828  3400               	retlw	0
   592  0829  341C               	retlw	28
   593  082A  3422               	retlw	34
   594  082B  3441               	retlw	65
   595  082C  3400               	retlw	0
   596  082D  3400               	retlw	0
   597  082E  3441               	retlw	65
   598  082F  3422               	retlw	34
   599  0830  341C               	retlw	28
   600  0831  3400               	retlw	0
   601  0832  3414               	retlw	20
   602  0833  3408               	retlw	8
   603  0834  343E               	retlw	62
   604  0835  3408               	retlw	8
   605  0836  3414               	retlw	20
   606  0837  3408               	retlw	8
   607  0838  3408               	retlw	8
   608  0839  343E               	retlw	62
   609  083A  3408               	retlw	8
   610  083B  3408               	retlw	8
   611  083C  3400               	retlw	0
   612  083D  3450               	retlw	80
   613  083E  3430               	retlw	48
   614  083F  3400               	retlw	0
   615  0840  3400               	retlw	0
   616  0841  3408               	retlw	8
   617  0842  3408               	retlw	8
   618  0843  3408               	retlw	8
   619  0844  3408               	retlw	8
   620  0845  3408               	retlw	8
   621  0846  3400               	retlw	0
   622  0847  3460               	retlw	96
   623  0848  3460               	retlw	96
   624  0849  3400               	retlw	0
   625  084A  3400               	retlw	0
   626  084B  3420               	retlw	32
   627  084C  3410               	retlw	16
   628  084D  3408               	retlw	8
   629  084E  3404               	retlw	4
   630  084F  3402               	retlw	2
   631  0850  343E               	retlw	62
   632  0851  3451               	retlw	81
   633  0852  3449               	retlw	73
   634  0853  3445               	retlw	69
   635  0854  343E               	retlw	62
   636  0855  3400               	retlw	0
   637  0856  3442               	retlw	66
   638  0857  347F               	retlw	127
   639  0858  3440               	retlw	64
   640  0859  3400               	retlw	0
   641  085A  3442               	retlw	66
   642  085B  3461               	retlw	97
   643  085C  3451               	retlw	81
   644  085D  3449               	retlw	73
   645  085E  3446               	retlw	70
   646  085F  3421               	retlw	33
   647  0860  3441               	retlw	65
   648  0861  3445               	retlw	69
   649  0862  344B               	retlw	75
   650  0863  3431               	retlw	49
   651  0864  3418               	retlw	24
   652  0865  3414               	retlw	20
   653  0866  3412               	retlw	18
   654  0867  347F               	retlw	127
   655  0868  3410               	retlw	16
   656  0869  3427               	retlw	39
   657  086A  3445               	retlw	69
   658  086B  3445               	retlw	69
   659  086C  3445               	retlw	69
   660  086D  3439               	retlw	57
   661  086E  343C               	retlw	60
   662  086F  344A               	retlw	74
   663  0870  3449               	retlw	73
   664  0871  3449               	retlw	73
   665  0872  3430               	retlw	48
   666  0873  3401               	retlw	1
   667  0874  3471               	retlw	113
   668  0875  3409               	retlw	9
   669  0876  3405               	retlw	5
   670  0877  3403               	retlw	3
   671  0878  3436               	retlw	54
   672  0879  3449               	retlw	73
   673  087A  3449               	retlw	73
   674  087B  3449               	retlw	73
   675  087C  3436               	retlw	54
   676  087D  3406               	retlw	6
   677  087E  3449               	retlw	73
   678  087F  3449               	retlw	73
   679  0880  3429               	retlw	41
   680  0881  341E               	retlw	30
   681  0882  3400               	retlw	0
   682  0883  3436               	retlw	54
   683  0884  3436               	retlw	54
   684  0885  3400               	retlw	0
   685  0886  3400               	retlw	0
   686  0887  3400               	retlw	0
   687  0888  3456               	retlw	86
   688  0889  3436               	retlw	54
   689  088A  3400               	retlw	0
   690  088B  3400               	retlw	0
   691  088C  3408               	retlw	8
   692  088D  3414               	retlw	20
   693  088E  3422               	retlw	34
   694  088F  3441               	retlw	65
   695  0890  3400               	retlw	0
   696  0891  3414               	retlw	20
   697  0892  3414               	retlw	20
   698  0893  3414               	retlw	20
   699  0894  3414               	retlw	20
   700  0895  3414               	retlw	20
   701  0896  3400               	retlw	0
   702  0897  3441               	retlw	65
   703  0898  3422               	retlw	34
   704  0899  3414               	retlw	20
   705  089A  3408               	retlw	8
   706  089B  3402               	retlw	2
   707  089C  3401               	retlw	1
   708  089D  3451               	retlw	81
   709  089E  3409               	retlw	9
   710  089F  3406               	retlw	6
   711  08A0  3432               	retlw	50
   712  08A1  3449               	retlw	73
   713  08A2  3479               	retlw	121
   714  08A3  3441               	retlw	65
   715  08A4  343E               	retlw	62
   716  08A5  347E               	retlw	126
   717  08A6  3411               	retlw	17
   718  08A7  3411               	retlw	17
   719  08A8  3411               	retlw	17
   720  08A9  347E               	retlw	126
   721  08AA  347F               	retlw	127
   722  08AB  3449               	retlw	73
   723  08AC  3449               	retlw	73
   724  08AD  3449               	retlw	73
   725  08AE  3436               	retlw	54
   726  08AF  343E               	retlw	62
   727  08B0  3441               	retlw	65
   728  08B1  3441               	retlw	65
   729  08B2  3441               	retlw	65
   730  08B3  3422               	retlw	34
   731  08B4  347F               	retlw	127
   732  08B5  3441               	retlw	65
   733  08B6  3441               	retlw	65
   734  08B7  3422               	retlw	34
   735  08B8  341C               	retlw	28
   736  08B9  347F               	retlw	127
   737  08BA  3449               	retlw	73
   738  08BB  3449               	retlw	73
   739  08BC  3449               	retlw	73
   740  08BD  3441               	retlw	65
   741  08BE  347F               	retlw	127
   742  08BF  3409               	retlw	9
   743  08C0  3409               	retlw	9
   744  08C1  3409               	retlw	9
   745  08C2  3401               	retlw	1
   746  08C3  343E               	retlw	62
   747  08C4  3441               	retlw	65
   748  08C5  3449               	retlw	73
   749  08C6  3449               	retlw	73
   750  08C7  347A               	retlw	122
   751  08C8  347F               	retlw	127
   752  08C9  3408               	retlw	8
   753  08CA  3408               	retlw	8
   754  08CB  3408               	retlw	8
   755  08CC  347F               	retlw	127
   756  08CD  3400               	retlw	0
   757  08CE  3441               	retlw	65
   758  08CF  347F               	retlw	127
   759  08D0  3441               	retlw	65
   760  08D1  3400               	retlw	0
   761  08D2  3420               	retlw	32
   762  08D3  3440               	retlw	64
   763  08D4  3441               	retlw	65
   764  08D5  343F               	retlw	63
   765  08D6  3401               	retlw	1
   766  08D7  347F               	retlw	127
   767  08D8  3408               	retlw	8
   768  08D9  3414               	retlw	20
   769  08DA  3422               	retlw	34
   770  08DB  3441               	retlw	65
   771  08DC  347F               	retlw	127
   772  08DD  3440               	retlw	64
   773  08DE  3440               	retlw	64
   774  08DF  3440               	retlw	64
   775  08E0  3440               	retlw	64
   776  08E1  347F               	retlw	127
   777  08E2  3402               	retlw	2
   778  08E3  340C               	retlw	12
   779  08E4  3402               	retlw	2
   780  08E5  347F               	retlw	127
   781  08E6  347F               	retlw	127
   782  08E7  3404               	retlw	4
   783  08E8  3408               	retlw	8
   784  08E9  3410               	retlw	16
   785  08EA  347F               	retlw	127
   786  08EB  343E               	retlw	62
   787  08EC  3441               	retlw	65
   788  08ED  3441               	retlw	65
   789  08EE  3441               	retlw	65
   790  08EF  343E               	retlw	62
   791  08F0  347F               	retlw	127
   792  08F1  3409               	retlw	9
   793  08F2  3409               	retlw	9
   794  08F3  3409               	retlw	9
   795  08F4  3406               	retlw	6
   796  08F5  343E               	retlw	62
   797  08F6  3441               	retlw	65
   798  08F7  3451               	retlw	81
   799  08F8  3421               	retlw	33
   800  08F9  345E               	retlw	94
   801  08FA  347F               	retlw	127
   802  08FB  3409               	retlw	9
   803  08FC  3419               	retlw	25
   804  08FD  3429               	retlw	41
   805  08FE  3446               	retlw	70
   806  08FF  3446               	retlw	70
   807  0900  3449               	retlw	73
   808  0901  3449               	retlw	73
   809  0902  3449               	retlw	73
   810  0903  3431               	retlw	49
   811  0904  3401               	retlw	1
   812  0905  3401               	retlw	1
   813  0906  347F               	retlw	127
   814  0907  3401               	retlw	1
   815  0908  3401               	retlw	1
   816  0909  343F               	retlw	63
   817  090A  3440               	retlw	64
   818  090B  3440               	retlw	64
   819  090C  3440               	retlw	64
   820  090D  343F               	retlw	63
   821  090E  341F               	retlw	31
   822  090F  3420               	retlw	32
   823  0910  3440               	retlw	64
   824  0911  3420               	retlw	32
   825  0912  341F               	retlw	31
   826  0913  343F               	retlw	63
   827  0914  3440               	retlw	64
   828  0915  3438               	retlw	56
   829  0916  3440               	retlw	64
   830  0917  343F               	retlw	63
   831  0918  3463               	retlw	99
   832  0919  3414               	retlw	20
   833  091A  3408               	retlw	8
   834  091B  3414               	retlw	20
   835  091C  3463               	retlw	99
   836  091D  3407               	retlw	7
   837  091E  3408               	retlw	8
   838  091F  3470               	retlw	112
   839  0920  3408               	retlw	8
   840  0921  3407               	retlw	7
   841  0922  3461               	retlw	97
   842  0923  3451               	retlw	81
   843  0924  3449               	retlw	73
   844  0925  3445               	retlw	69
   845  0926  3443               	retlw	67
   846  0927  3400               	retlw	0
   847  0928  347F               	retlw	127
   848  0929  3441               	retlw	65
   849  092A  3441               	retlw	65
   850  092B  3400               	retlw	0
   851  092C  3402               	retlw	2
   852  092D  3404               	retlw	4
   853  092E  3408               	retlw	8
   854  092F  3410               	retlw	16
   855  0930  3420               	retlw	32
   856  0931  3400               	retlw	0
   857  0932  3441               	retlw	65
   858  0933  3441               	retlw	65
   859  0934  347F               	retlw	127
   860  0935  3400               	retlw	0
   861  0936  3404               	retlw	4
   862  0937  3402               	retlw	2
   863  0938  3401               	retlw	1
   864  0939  3402               	retlw	2
   865  093A  3404               	retlw	4
   866  093B  3440               	retlw	64
   867  093C  3440               	retlw	64
   868  093D  3440               	retlw	64
   869  093E  3440               	retlw	64
   870  093F  3440               	retlw	64
   871  0940  3400               	retlw	0
   872  0941  3401               	retlw	1
   873  0942  3402               	retlw	2
   874  0943  3404               	retlw	4
   875  0944  3400               	retlw	0
   876  0945  3420               	retlw	32
   877  0946  3454               	retlw	84
   878  0947  3454               	retlw	84
   879  0948  3454               	retlw	84
   880  0949  3478               	retlw	120
   881  094A  347F               	retlw	127
   882  094B  3448               	retlw	72
   883  094C  3444               	retlw	68
   884  094D  3444               	retlw	68
   885  094E  3438               	retlw	56
   886  094F  3438               	retlw	56
   887  0950  3444               	retlw	68
   888  0951  3444               	retlw	68
   889  0952  3444               	retlw	68
   890  0953  3420               	retlw	32
   891  0954  3438               	retlw	56
   892  0955  3444               	retlw	68
   893  0956  3444               	retlw	68
   894  0957  3448               	retlw	72
   895  0958  347F               	retlw	127
   896  0959  3438               	retlw	56
   897  095A  3454               	retlw	84
   898  095B  3454               	retlw	84
   899  095C  3454               	retlw	84
   900  095D  3418               	retlw	24
   901  095E  3408               	retlw	8
   902  095F  347E               	retlw	126
   903  0960  3409               	retlw	9
   904  0961  3401               	retlw	1
   905  0962  3402               	retlw	2
   906  0963  340C               	retlw	12
   907  0964  3452               	retlw	82
   908  0965  3452               	retlw	82
   909  0966  3452               	retlw	82
   910  0967  343E               	retlw	62
   911  0968  347F               	retlw	127
   912  0969  3408               	retlw	8
   913  096A  3404               	retlw	4
   914  096B  3404               	retlw	4
   915  096C  3478               	retlw	120
   916  096D  3400               	retlw	0
   917  096E  3444               	retlw	68
   918  096F  347D               	retlw	125
   919  0970  3440               	retlw	64
   920  0971  3400               	retlw	0
   921  0972  3420               	retlw	32
   922  0973  3440               	retlw	64
   923  0974  3444               	retlw	68
   924  0975  343D               	retlw	61
   925  0976  3400               	retlw	0
   926  0977  347F               	retlw	127
   927  0978  3410               	retlw	16
   928  0979  3428               	retlw	40
   929  097A  3444               	retlw	68
   930  097B  3400               	retlw	0
   931  097C  3400               	retlw	0
   932  097D  3441               	retlw	65
   933  097E  347F               	retlw	127
   934  097F  3440               	retlw	64
   935  0980  3400               	retlw	0
   936  0981  347C               	retlw	124
   937  0982  3404               	retlw	4
   938  0983  3418               	retlw	24
   939  0984  3404               	retlw	4
   940  0985  3478               	retlw	120
   941  0986  347C               	retlw	124
   942  0987  3408               	retlw	8
   943  0988  3404               	retlw	4
   944  0989  3404               	retlw	4
   945  098A  3478               	retlw	120
   946  098B  3438               	retlw	56
   947  098C  3444               	retlw	68
   948  098D  3444               	retlw	68
   949  098E  3444               	retlw	68
   950  098F  3438               	retlw	56
   951  0990  347C               	retlw	124
   952  0991  3414               	retlw	20
   953  0992  3414               	retlw	20
   954  0993  3414               	retlw	20
   955  0994  3408               	retlw	8
   956  0995  3408               	retlw	8
   957  0996  3414               	retlw	20
   958  0997  3414               	retlw	20
   959  0998  3418               	retlw	24
   960  0999  347C               	retlw	124
   961  099A  347C               	retlw	124
   962  099B  3408               	retlw	8
   963  099C  3404               	retlw	4
   964  099D  3404               	retlw	4
   965  099E  3408               	retlw	8
   966  099F  3448               	retlw	72
   967  09A0  3454               	retlw	84
   968  09A1  3454               	retlw	84
   969  09A2  3454               	retlw	84
   970  09A3  3420               	retlw	32
   971  09A4  3404               	retlw	4
   972  09A5  343F               	retlw	63
   973  09A6  3444               	retlw	68
   974  09A7  3440               	retlw	64
   975  09A8  3420               	retlw	32
   976  09A9  343C               	retlw	60
   977  09AA  3440               	retlw	64
   978  09AB  3440               	retlw	64
   979  09AC  3420               	retlw	32
   980  09AD  347C               	retlw	124
   981  09AE  341C               	retlw	28
   982  09AF  3420               	retlw	32
   983  09B0  3440               	retlw	64
   984  09B1  3420               	retlw	32
   985  09B2  341C               	retlw	28
   986  09B3  343C               	retlw	60
   987  09B4  3440               	retlw	64
   988  09B5  3430               	retlw	48
   989  09B6  3440               	retlw	64
   990  09B7  343C               	retlw	60
   991  09B8  3444               	retlw	68
   992  09B9  3428               	retlw	40
   993  09BA  3410               	retlw	16
   994  09BB  3428               	retlw	40
   995  09BC  3444               	retlw	68
   996  09BD  340C               	retlw	12
   997  09BE  3450               	retlw	80
   998  09BF  3450               	retlw	80
   999  09C0  3450               	retlw	80
  1000  09C1  343C               	retlw	60
  1001  09C2  3444               	retlw	68
  1002  09C3  3464               	retlw	100
  1003  09C4  3454               	retlw	84
  1004  09C5  344C               	retlw	76
  1005  09C6  3444               	retlw	68
  1006  09C7  3400               	retlw	0
  1007  09C8  3408               	retlw	8
  1008  09C9  3436               	retlw	54
  1009  09CA  3441               	retlw	65
  1010  09CB  3400               	retlw	0
  1011  09CC  3400               	retlw	0
  1012  09CD  3400               	retlw	0
  1013  09CE  347F               	retlw	127
  1014  09CF  3400               	retlw	0
  1015  09D0  3400               	retlw	0
  1016  09D1  3400               	retlw	0
  1017  09D2  3441               	retlw	65
  1018  09D3  3436               	retlw	54
  1019  09D4  3408               	retlw	8
  1020  09D5  3400               	retlw	0
  1021  09D6  3408               	retlw	8
  1022  09D7  3408               	retlw	8
  1023  09D8  342A               	retlw	42
  1024  09D9  341C               	retlw	28
  1025  09DA  3408               	retlw	8
  1026  09DB  3408               	retlw	8
  1027  09DC  341C               	retlw	28
  1028  09DD  342A               	retlw	42
  1029  09DE  3408               	retlw	8
  1030  09DF  3408               	retlw	8
  1031  09E0  3400               	retlw	0
  1032  09E1  3400               	retlw	0
  1033  09E2  340F               	retlw	15
  1034  09E3  3408               	retlw	8
  1035  09E4  3408               	retlw	8
  1036  09E5  3408               	retlw	8
  1037  09E6  3408               	retlw	8
  1038  09E7  340F               	retlw	15
  1039  09E8  3400               	retlw	0
  1040  09E9  3400               	retlw	0
  1041  09EA  342C               	retlw	44
  1042  09EB  3432               	retlw	50
  1043  09EC  3402               	retlw	2
  1044  09ED  3432               	retlw	50
  1045  09EE  342C               	retlw	44
  1046  09EF  3444               	retlw	68
  1047  09F0  343C               	retlw	60
  1048  09F1  3404               	retlw	4
  1049  09F2  347C               	retlw	124
  1050  09F3  3444               	retlw	68
  1051  09F4  3463               	retlw	99
  1052  09F5  3455               	retlw	85
  1053  09F6  3449               	retlw	73
  1054  09F7  3441               	retlw	65
  1055  09F8  3441               	retlw	65
  1056  09F9  3414               	retlw	20
  1057  09FA  3414               	retlw	20
  1058  09FB  347C               	retlw	124
  1059  09FC  3414               	retlw	20
  1060  09FD  3412               	retlw	18
  1061  09FE  3444               	retlw	68
  1062  09FF  343C               	retlw	60
  1063  0A00  3414               	retlw	20
  1064  0A01  3414               	retlw	20
  1065  0A02  3474               	retlw	116
  1066  0A03  347C               	retlw	124
  1067  0A04  3414               	retlw	20
  1068  0A05  341C               	retlw	28
  1069  0A06  3414               	retlw	20
  1070  0A07  347C               	retlw	124
  1071  0A08  3410               	retlw	16
  1072  0A09  3410               	retlw	16
  1073  0A0A  3454               	retlw	84
  1074  0A0B  3410               	retlw	16
  1075  0A0C  3410               	retlw	16
  1076  0A0D  347F               	retlw	127
  1077  0A0E  347F               	retlw	127
  1078  0A0F  347F               	retlw	127
  1079  0A10  347F               	retlw	127
  1080  0A11  347F               	retlw	127
  1081  0A12  340F               	retlw	15
  1082  0A13  340F               	retlw	15
  1083  0A14  340F               	retlw	15
  1084  0A15  340F               	retlw	15
  1085  0A16  340F               	retlw	15
  1086  0A17  3400               	retlw	0
  1087  0A18  3400               	retlw	0
  1088  0A19  3400               	retlw	0
  1089  0A1A  3400               	retlw	0
  1090  0A1B  3400               	retlw	0
  1091  0A1C  3400               	retlw	0
  1092  0A1D  3400               	retlw	0
  1093  0A1E  3400               	retlw	0
  1094  0A1F  3400               	retlw	0
  1095  0A20  3400               	retlw	0
  1096  0A21  3400               	retlw	0
  1097  0A22  3400               	retlw	0
  1098  0A23  3400               	retlw	0
  1099  0A24  3400               	retlw	0
  1100  0A25  3400               	retlw	0
  1101  0A26  3400               	retlw	0
  1102  0A27  3400               	retlw	0
  1103  0A28  3400               	retlw	0
  1104  0A29  3400               	retlw	0
  1105  0A2A  3400               	retlw	0
  1106  0A2B  3400               	retlw	0
  1107  0A2C  3400               	retlw	0
  1108  0A2D  3400               	retlw	0
  1109  0A2E  3400               	retlw	0
  1110  0A2F  3400               	retlw	0
  1111  0A30  3400               	retlw	0
  1112  0A31  3400               	retlw	0
  1113  0A32  3400               	retlw	0
  1114  0A33  3400               	retlw	0
  1115  0A34  3400               	retlw	0
  1116  0A35  3400               	retlw	0
  1117  0A36  3400               	retlw	0
  1118  0A37  3400               	retlw	0
  1119  0A38  3400               	retlw	0
  1120  0A39  3400               	retlw	0
  1121  0A3A  3400               	retlw	0
  1122  0A3B  3400               	retlw	0
  1123  0A3C  3400               	retlw	0
  1124  0A3D  3400               	retlw	0
  1125  0A3E  3400               	retlw	0
  1126  0A3F  3400               	retlw	0
  1127  0A40  3400               	retlw	0
  1128  0A41  3400               	retlw	0
  1129  0A42  3400               	retlw	0
  1130  0A43  3400               	retlw	0
  1131  0A44  3400               	retlw	0
  1132  0A45  3400               	retlw	0
  1133  0A46  3400               	retlw	0
  1134  0A47  3400               	retlw	0
  1135  0A48  3400               	retlw	0
  1136  0A49  3400               	retlw	0
  1137  0A4A  3400               	retlw	0
  1138  0A4B  3400               	retlw	0
  1139  0A4C  3400               	retlw	0
  1140  0A4D  3400               	retlw	0
  1141  0A4E  3400               	retlw	0
  1142  0A4F  3400               	retlw	0
  1143  0A50  3400               	retlw	0
  1144  0A51  3400               	retlw	0
  1145  0A52  3400               	retlw	0
  1146  0A53  3400               	retlw	0
  1147  0A54  3400               	retlw	0
  1148  0A55  3400               	retlw	0
  1149  0A56  3400               	retlw	0
  1150  0A57  3400               	retlw	0
  1151  0A58  3400               	retlw	0
  1152  0A59  3400               	retlw	0
  1153  0A5A  3400               	retlw	0
  1154  0A5B  3400               	retlw	0
  1155  0A5C  3400               	retlw	0
  1156  0A5D  3400               	retlw	0
  1157  0A5E  3400               	retlw	0
  1158  0A5F  3400               	retlw	0
  1159  0A60  3400               	retlw	0
  1160  0A61  3400               	retlw	0
  1161  0A62  3400               	retlw	0
  1162  0A63  3400               	retlw	0
  1163  0A64  3400               	retlw	0
  1164  0A65  3400               	retlw	0
  1165  0A66  3400               	retlw	0
  1166  0A67  3400               	retlw	0
  1167  0A68  3400               	retlw	0
  1168  0A69  3400               	retlw	0
  1169  0A6A  3400               	retlw	0
  1170  0A6B  3400               	retlw	0
  1171  0A6C  3400               	retlw	0
  1172  0A6D  3400               	retlw	0
  1173  0A6E  3400               	retlw	0
  1174  0A6F  3400               	retlw	0
  1175  0A70  3400               	retlw	0
  1176  0A71  3400               	retlw	0
  1177  0A72  3400               	retlw	0
  1178  0A73  3400               	retlw	0
  1179  0A74  3400               	retlw	0
  1180  0A75  3400               	retlw	0
  1181  0A76  3400               	retlw	0
  1182  0A77  3400               	retlw	0
  1183  0A78  3400               	retlw	0
  1184  0A79  3400               	retlw	0
  1185  0A7A  3400               	retlw	0
  1186  0A7B  3400               	retlw	0
  1187  0A7C  3400               	retlw	0
  1188  0A7D  3400               	retlw	0
  1189  0A7E  3400               	retlw	0
  1190  0A7F  3400               	retlw	0
  1191  0A80  3400               	retlw	0
  1192  0A81  3400               	retlw	0
  1193  0A82  3400               	retlw	0
  1194  0A83  3400               	retlw	0
  1195  0A84  3400               	retlw	0
  1196  0A85  3470               	retlw	112
  1197  0A86  3450               	retlw	80
  1198  0A87  3470               	retlw	112
  1199  0A88  3400               	retlw	0
  1200  0A89  3400               	retlw	0
  1201  0A8A  3400               	retlw	0
  1202  0A8B  3400               	retlw	0
  1203  0A8C  340F               	retlw	15
  1204  0A8D  3401               	retlw	1
  1205  0A8E  3401               	retlw	1
  1206  0A8F  3440               	retlw	64
  1207  0A90  3440               	retlw	64
  1208  0A91  3478               	retlw	120
  1209  0A92  3400               	retlw	0
  1210  0A93  3400               	retlw	0
  1211  0A94  3410               	retlw	16
  1212  0A95  3420               	retlw	32
  1213  0A96  3440               	retlw	64
  1214  0A97  3400               	retlw	0
  1215  0A98  3400               	retlw	0
  1216  0A99  3400               	retlw	0
  1217  0A9A  3418               	retlw	24
  1218  0A9B  3418               	retlw	24
  1219  0A9C  3400               	retlw	0
  1220  0A9D  3400               	retlw	0
  1221  0A9E  340A               	retlw	10
  1222  0A9F  340A               	retlw	10
  1223  0AA0  344A               	retlw	74
  1224  0AA1  342A               	retlw	42
  1225  0AA2  341E               	retlw	30
  1226  0AA3  3404               	retlw	4
  1227  0AA4  3424               	retlw	36
  1228  0AA5  3434               	retlw	52
  1229  0AA6  3414               	retlw	20
  1230  0AA7  340C               	retlw	12
  1231  0AA8  3420               	retlw	32
  1232  0AA9  3410               	retlw	16
  1233  0AAA  3478               	retlw	120
  1234  0AAB  3404               	retlw	4
  1235  0AAC  3400               	retlw	0
  1236  0AAD  3418               	retlw	24
  1237  0AAE  3408               	retlw	8
  1238  0AAF  344C               	retlw	76
  1239  0AB0  3448               	retlw	72
  1240  0AB1  3438               	retlw	56
  1241  0AB2  3448               	retlw	72
  1242  0AB3  3448               	retlw	72
  1243  0AB4  3478               	retlw	120
  1244  0AB5  3448               	retlw	72
  1245  0AB6  3448               	retlw	72
  1246  0AB7  3448               	retlw	72
  1247  0AB8  3428               	retlw	40
  1248  0AB9  3418               	retlw	24
  1249  0ABA  347C               	retlw	124
  1250  0ABB  3408               	retlw	8
  1251  0ABC  3408               	retlw	8
  1252  0ABD  347C               	retlw	124
  1253  0ABE  3408               	retlw	8
  1254  0ABF  3428               	retlw	40
  1255  0AC0  3418               	retlw	24
  1256  0AC1  3440               	retlw	64
  1257  0AC2  3448               	retlw	72
  1258  0AC3  3448               	retlw	72
  1259  0AC4  3478               	retlw	120
  1260  0AC5  3440               	retlw	64
  1261  0AC6  3454               	retlw	84
  1262  0AC7  3454               	retlw	84
  1263  0AC8  3454               	retlw	84
  1264  0AC9  347C               	retlw	124
  1265  0ACA  3400               	retlw	0
  1266  0ACB  3418               	retlw	24
  1267  0ACC  3400               	retlw	0
  1268  0ACD  3458               	retlw	88
  1269  0ACE  3440               	retlw	64
  1270  0ACF  3438               	retlw	56
  1271  0AD0  3408               	retlw	8
  1272  0AD1  3408               	retlw	8
  1273  0AD2  3408               	retlw	8
  1274  0AD3  3408               	retlw	8
  1275  0AD4  3408               	retlw	8
  1276  0AD5  3401               	retlw	1
  1277  0AD6  3441               	retlw	65
  1278  0AD7  343D               	retlw	61
  1279  0AD8  3409               	retlw	9
  1280  0AD9  3407               	retlw	7
  1281  0ADA  3420               	retlw	32
  1282  0ADB  3410               	retlw	16
  1283  0ADC  347C               	retlw	124
  1284  0ADD  3402               	retlw	2
  1285  0ADE  3401               	retlw	1
  1286  0ADF  340E               	retlw	14
  1287  0AE0  3402               	retlw	2
  1288  0AE1  3443               	retlw	67
  1289  0AE2  3422               	retlw	34
  1290  0AE3  341E               	retlw	30
  1291  0AE4  3442               	retlw	66
  1292  0AE5  3442               	retlw	66
  1293  0AE6  347E               	retlw	126
  1294  0AE7  3442               	retlw	66
  1295  0AE8  3442               	retlw	66
  1296  0AE9  3422               	retlw	34
  1297  0AEA  3412               	retlw	18
  1298  0AEB  340A               	retlw	10
  1299  0AEC  347F               	retlw	127
  1300  0AED  3402               	retlw	2
  1301  0AEE  3442               	retlw	66
  1302  0AEF  343F               	retlw	63
  1303  0AF0  3402               	retlw	2
  1304  0AF1  3442               	retlw	66
  1305  0AF2  343E               	retlw	62
  1306  0AF3  340A               	retlw	10
  1307  0AF4  340A               	retlw	10
  1308  0AF5  347F               	retlw	127
  1309  0AF6  340A               	retlw	10
  1310  0AF7  340A               	retlw	10
  1311  0AF8  3408               	retlw	8
  1312  0AF9  3446               	retlw	70
  1313  0AFA  3442               	retlw	66
  1314  0AFB  3422               	retlw	34
  1315  0AFC  341E               	retlw	30
  1316  0AFD  3404               	retlw	4
  1317  0AFE  3403               	retlw	3
  1318  0AFF  3442               	retlw	66
  1319  0B00  343E               	retlw	62
  1320  0B01  3404               	retlw	4
  1321  0B02  3442               	retlw	66
  1322  0B03  3442               	retlw	66
  1323  0B04  3442               	retlw	66
  1324  0B05  3442               	retlw	66
  1325  0B06  347E               	retlw	126
  1326  0B07  3402               	retlw	2
  1327  0B08  344F               	retlw	79
  1328  0B09  3422               	retlw	34
  1329  0B0A  341F               	retlw	31
  1330  0B0B  3402               	retlw	2
  1331  0B0C  344A               	retlw	74
  1332  0B0D  344A               	retlw	74
  1333  0B0E  3440               	retlw	64
  1334  0B0F  3420               	retlw	32
  1335  0B10  341C               	retlw	28
  1336  0B11  3442               	retlw	66
  1337  0B12  3422               	retlw	34
  1338  0B13  3412               	retlw	18
  1339  0B14  342A               	retlw	42
  1340  0B15  3446               	retlw	70
  1341  0B16  3402               	retlw	2
  1342  0B17  343F               	retlw	63
  1343  0B18  3442               	retlw	66
  1344  0B19  344A               	retlw	74
  1345  0B1A  3446               	retlw	70
  1346  0B1B  3406               	retlw	6
  1347  0B1C  3448               	retlw	72
  1348  0B1D  3440               	retlw	64
  1349  0B1E  3420               	retlw	32
  1350  0B1F  341E               	retlw	30
  1351  0B20  3408               	retlw	8
  1352  0B21  3446               	retlw	70
  1353  0B22  344A               	retlw	74
  1354  0B23  3432               	retlw	50
  1355  0B24  341E               	retlw	30
  1356  0B25  340A               	retlw	10
  1357  0B26  344A               	retlw	74
  1358  0B27  343E               	retlw	62
  1359  0B28  3409               	retlw	9
  1360  0B29  3408               	retlw	8
  1361  0B2A  340E               	retlw	14
  1362  0B2B  3400               	retlw	0
  1363  0B2C  344E               	retlw	78
  1364  0B2D  3420               	retlw	32
  1365  0B2E  341E               	retlw	30
  1366  0B2F  3404               	retlw	4
  1367  0B30  3445               	retlw	69
  1368  0B31  343D               	retlw	61
  1369  0B32  3405               	retlw	5
  1370  0B33  3404               	retlw	4
  1371  0B34  3400               	retlw	0
  1372  0B35  347F               	retlw	127
  1373  0B36  3408               	retlw	8
  1374  0B37  3410               	retlw	16
  1375  0B38  3400               	retlw	0
  1376  0B39  3444               	retlw	68
  1377  0B3A  3424               	retlw	36
  1378  0B3B  341F               	retlw	31
  1379  0B3C  3404               	retlw	4
  1380  0B3D  3404               	retlw	4
  1381  0B3E  3440               	retlw	64
  1382  0B3F  3442               	retlw	66
  1383  0B40  3442               	retlw	66
  1384  0B41  3442               	retlw	66
  1385  0B42  3440               	retlw	64
  1386  0B43  3442               	retlw	66
  1387  0B44  342A               	retlw	42
  1388  0B45  3412               	retlw	18
  1389  0B46  342A               	retlw	42
  1390  0B47  3406               	retlw	6
  1391  0B48  3422               	retlw	34
  1392  0B49  3412               	retlw	18
  1393  0B4A  347B               	retlw	123
  1394  0B4B  3416               	retlw	22
  1395  0B4C  3422               	retlw	34
  1396  0B4D  3400               	retlw	0
  1397  0B4E  3440               	retlw	64
  1398  0B4F  3420               	retlw	32
  1399  0B50  341F               	retlw	31
  1400  0B51  3400               	retlw	0
  1401  0B52  3478               	retlw	120
  1402  0B53  3400               	retlw	0
  1403  0B54  3402               	retlw	2
  1404  0B55  3404               	retlw	4
  1405  0B56  3478               	retlw	120
  1406  0B57  343F               	retlw	63
  1407  0B58  3444               	retlw	68
  1408  0B59  3444               	retlw	68
  1409  0B5A  3444               	retlw	68
  1410  0B5B  3444               	retlw	68
  1411  0B5C  3402               	retlw	2
  1412  0B5D  3442               	retlw	66
  1413  0B5E  3442               	retlw	66
  1414  0B5F  3422               	retlw	34
  1415  0B60  341E               	retlw	30
  1416  0B61  3404               	retlw	4
  1417  0B62  3402               	retlw	2
  1418  0B63  3404               	retlw	4
  1419  0B64  3408               	retlw	8
  1420  0B65  3430               	retlw	48
  1421  0B66  3432               	retlw	50
  1422  0B67  3402               	retlw	2
  1423  0B68  347F               	retlw	127
  1424  0B69  3402               	retlw	2
  1425  0B6A  3432               	retlw	50
  1426  0B6B  3402               	retlw	2
  1427  0B6C  3412               	retlw	18
  1428  0B6D  3422               	retlw	34
  1429  0B6E  3452               	retlw	82
  1430  0B6F  340E               	retlw	14
  1431  0B70  3400               	retlw	0
  1432  0B71  342A               	retlw	42
  1433  0B72  342A               	retlw	42
  1434  0B73  342A               	retlw	42
  1435  0B74  3440               	retlw	64
  1436  0B75  3438               	retlw	56
  1437  0B76  3424               	retlw	36
  1438  0B77  3422               	retlw	34
  1439  0B78  3420               	retlw	32
  1440  0B79  3470               	retlw	112
  1441  0B7A  3440               	retlw	64
  1442  0B7B  3428               	retlw	40
  1443  0B7C  3410               	retlw	16
  1444  0B7D  3428               	retlw	40
  1445  0B7E  3406               	retlw	6
  1446  0B7F  340A               	retlw	10
  1447  0B80  343E               	retlw	62
  1448  0B81  344A               	retlw	74
  1449  0B82  344A               	retlw	74
  1450  0B83  344A               	retlw	74
  1451  0B84  3404               	retlw	4
  1452  0B85  347F               	retlw	127
  1453  0B86  3404               	retlw	4
  1454  0B87  3414               	retlw	20
  1455  0B88  340C               	retlw	12
  1456  0B89  3440               	retlw	64
  1457  0B8A  3442               	retlw	66
  1458  0B8B  3442               	retlw	66
  1459  0B8C  347E               	retlw	126
  1460  0B8D  3440               	retlw	64
  1461  0B8E  344A               	retlw	74
  1462  0B8F  344A               	retlw	74
  1463  0B90  344A               	retlw	74
  1464  0B91  344A               	retlw	74
  1465  0B92  347E               	retlw	126
  1466  0B93  3404               	retlw	4
  1467  0B94  3405               	retlw	5
  1468  0B95  3445               	retlw	69
  1469  0B96  3425               	retlw	37
  1470  0B97  341C               	retlw	28
  1471  0B98  340F               	retlw	15
  1472  0B99  3440               	retlw	64
  1473  0B9A  3420               	retlw	32
  1474  0B9B  341F               	retlw	31
  1475  0B9C  3400               	retlw	0
  1476  0B9D  347C               	retlw	124
  1477  0B9E  3400               	retlw	0
  1478  0B9F  347E               	retlw	126
  1479  0BA0  3480               	retlw	128
  1480  0BA1  3430               	retlw	48
  1481  0BA2  347E               	retlw	126
  1482  0BA3  3440               	retlw	64
  1483  0BA4  3420               	retlw	32
  1484  0BA5  3410               	retlw	16
  1485  0BA6  3408               	retlw	8
  1486  0BA7  347E               	retlw	126
  1487  0BA8  3442               	retlw	66
  1488  0BA9  3442               	retlw	66
  1489  0BAA  3442               	retlw	66
  1490  0BAB  347E               	retlw	126
  1491  0BAC  340E               	retlw	14
  1492  0BAD  3402               	retlw	2
  1493  0BAE  3442               	retlw	66
  1494  0BAF  3422               	retlw	34
  1495  0BB0  341E               	retlw	30
  1496  0BB1  3442               	retlw	66
  1497  0BB2  3442               	retlw	66
  1498  0BB3  3440               	retlw	64
  1499  0BB4  3420               	retlw	32
  1500  0BB5  3418               	retlw	24
  1501  0BB6  3402               	retlw	2
  1502  0BB7  3404               	retlw	4
  1503  0BB8  3401               	retlw	1
  1504  0BB9  3402               	retlw	2
  1505  0BBA  3400               	retlw	0
  1506  0BBB  3407               	retlw	7
  1507  0BBC  3405               	retlw	5
  1508  0BBD  3407               	retlw	7
  1509  0BBE  3400               	retlw	0
  1510  0BBF  3400               	retlw	0
  1511  0BC0                     __end_of_Font:	
  1512  000C                     _PORTA	set	12
  1513  000D                     _PORTB	set	13
  1514  000E                     _PORTC	set	14
  1515  000F                     _PORTD	set	15
  1516  0010                     _PORTE	set	16
  1517  006B                     _RB3	set	107
  1518  006C                     _RB4	set	108
  1519  0070                     _RC0	set	112
  1520  0071                     _RC1	set	113
  1521  0072                     _RC2	set	114
  1522  0075                     _RC5	set	117
  1523  0076                     _RC6	set	118
  1524  0077                     _RC7	set	119
  1525  0078                     _RD0	set	120
  1526  0079                     _RD1	set	121
  1527  007A                     _RD2	set	122
  1528  007C                     _RD4	set	124
  1529  007D                     _RD5	set	125
  1530  007E                     _RD6	set	126
  1531  009D                     _ADCON0	set	157
  1532  009D                     _ADCON0bits	set	157
  1533  009E                     _ADCON1	set	158
  1534  009C                     _ADRESH	set	156
  1535  009B                     _ADRESL	set	155
  1536  0099                     _OSCCON	set	153
  1537  008C                     _TRISA	set	140
  1538  008D                     _TRISB	set	141
  1539  008E                     _TRISC	set	142
  1540  008E                     _TRISCbits	set	142
  1541  008F                     _TRISD	set	143
  1542  0090                     _TRISE	set	144
  1543  04E9                     _ADGO	set	1257
  1544  0111                     _CM1CON0	set	273
  1545  0113                     _CM2CON0	set	275
  1546  0117                     _FVRCON	set	279
  1547  018C                     _ANSELA	set	396
  1548  018D                     _ANSELB	set	397
  1549  018F                     _ANSELD	set	399
  1550  0190                     _ANSELE	set	400
  1551  0212                     _SSPADD	set	530
  1552  0211                     _SSPBUF	set	529
  1553  0215                     _SSPCON1	set	533
  1554  0216                     _SSPCON2	set	534
  1555  0216                     _SSPCON2bits	set	534
  1556  0214                     _SSPSTAT	set	532
  1557  0214                     _SSPSTATbits	set	532
  1558  0BC0                     STR_5:	
  1559  0BC0  3454               	retlw	84	;'T'
  1560  0BC1  3468               	retlw	104	;'h'
  1561  0BC2  3469               	retlw	105	;'i'
  1562  0BC3  3473               	retlw	115	;'s'
  1563  0BC4  3420               	retlw	32	;' '
  1564  0BC5  3470               	retlw	112	;'p'
  1565  0BC6  3472               	retlw	114	;'r'
  1566  0BC7  346F               	retlw	111	;'o'
  1567  0BC8  3467               	retlw	103	;'g'
  1568  0BC9  3472               	retlw	114	;'r'
  1569  0BCA  3461               	retlw	97	;'a'
  1570  0BCB  346D               	retlw	109	;'m'
  1571  0BCC  3420               	retlw	32	;' '
  1572  0BCD  3477               	retlw	119	;'w'
  1573  0BCE  3461               	retlw	97	;'a'
  1574  0BCF  3473               	retlw	115	;'s'
  1575  0BD0  3420               	retlw	32	;' '
  1576  0BD1  3400               	retlw	0
  1577  0BD2                     STR_3:	
  1578  0BD2  3420               	retlw	32	;' '
  1579  0BD3  3420               	retlw	32	;' '
  1580  0BD4  3420               	retlw	32	;' '
  1581  0BD5  3420               	retlw	32	;' '
  1582  0BD6  3467               	retlw	103	;'g'
  1583  0BD7  346C               	retlw	108	;'l'
  1584  0BD8  3463               	retlw	99	;'c'
  1585  0BD9  3464               	retlw	100	;'d'
  1586  0BDA  345F               	retlw	95	;'_'
  1587  0BDB  3469               	retlw	105	;'i'
  1588  0BDC  346E               	retlw	110	;'n'
  1589  0BDD  3469               	retlw	105	;'i'
  1590  0BDE  3474               	retlw	116	;'t'
  1591  0BDF  3428               	retlw	40	;'('
  1592  0BE0  3429               	retlw	41	;')'
  1593  0BE1  3420               	retlw	32	;' '
  1594  0BE2  343B               	retlw	59	;';'
  1595  0BE3  3400               	retlw	0
  1596  0BE4                     STR_1:	
  1597  0BE4  3423               	retlw	35	;'#'
  1598  0BE5  3469               	retlw	105	;'i'
  1599  0BE6  346E               	retlw	110	;'n'
  1600  0BE7  3463               	retlw	99	;'c'
  1601  0BE8  346C               	retlw	108	;'l'
  1602  0BE9  3475               	retlw	117	;'u'
  1603  0BEA  3464               	retlw	100	;'d'
  1604  0BEB  3465               	retlw	101	;'e'
  1605  0BEC  3420               	retlw	32	;' '
  1606  0BED  343C               	retlw	60	;'<'
  1607  0BEE  3478               	retlw	120	;'x'
  1608  0BEF  3463               	retlw	99	;'c'
  1609  0BF0  342E               	retlw	46	;'.'
  1610  0BF1  3468               	retlw	104	;'h'
  1611  0BF2  343E               	retlw	62	;'>'
  1612  0BF3  3400               	retlw	0
  1613  0BF4                     STR_6:	
  1614  0BF4  346D               	retlw	109	;'m'
  1615  0BF5  3461               	retlw	97	;'a'
  1616  0BF6  346B               	retlw	107	;'k'
  1617  0BF7  3465               	retlw	101	;'e'
  1618  0BF8  3464               	retlw	100	;'d'
  1619  0BF9  3420               	retlw	32	;' '
  1620  0BFA  3462               	retlw	98	;'b'
  1621  0BFB  3479               	retlw	121	;'y'
  1622  0BFC  3420               	retlw	32	;' '
  1623  0BFD  34B2               	retlw	-78
  1624  0BFE  34DC               	retlw	-36
  1625  0BFF  34C0               	retlw	-64
  1626  0C00  3420               	retlw	32	;' '
  1627  0C01  3400               	retlw	0
  1628  0C02                     STR_2:	
  1629  0C02  3476               	retlw	118	;'v'
  1630  0C03  346F               	retlw	111	;'o'
  1631  0C04  3469               	retlw	105	;'i'
  1632  0C05  3464               	retlw	100	;'d'
  1633  0C06  3420               	retlw	32	;' '
  1634  0C07  346D               	retlw	109	;'m'
  1635  0C08  3461               	retlw	97	;'a'
  1636  0C09  3469               	retlw	105	;'i'
  1637  0C0A  346E               	retlw	110	;'n'
  1638  0C0B  3428               	retlw	40	;'('
  1639  0C0C  3429               	retlw	41	;')'
  1640  0C0D  3420               	retlw	32	;' '
  1641  0C0E  347B               	retlw	123	;'{'
  1642  0C0F  3400               	retlw	0
  1643  0C10                     STR_4:	
  1644  0C10  347D               	retlw	125	;'}'
  1645  0C11  3400               	retlw	0
  1646                           
  1647                           ; #config settings
  1648  0000                     
  1649                           	psect	cinit
  1650  07F7                     start_initialization:	
  1651  07F7                     __initialization:	
  1652                           
  1653                           ; Clear objects allocated to BANK0
  1654  07F7  01B4               	clrf	__pbssBANK0& (0+127)
  1655  07F8  01B5               	clrf	(__pbssBANK0+1)& (0+127)
  1656  07F9  01B6               	clrf	(__pbssBANK0+2)& (0+127)
  1657  07FA  01B7               	clrf	(__pbssBANK0+3)& (0+127)
  1658  07FB  01B8               	clrf	(__pbssBANK0+4)& (0+127)
  1659  07FC  01B9               	clrf	(__pbssBANK0+5)& (0+127)
  1660  07FD                     end_of_initialization:	
  1661                           ;End of C runtime variable initialization code
  1662                           
  1663  07FD                     __end_of__initialization:	
  1664  07FD  0020               	movlb	0
  1665  07FE  3186  2ECC         	ljmp	_main	;jump to C main() function
  1666                           
  1667                           	psect	bssBANK0
  1668  0034                     __pbssBANK0:	
  1669  0034                     _addata:	
  1670  0034                     	ds	2
  1671  0036                     _adflag:	
  1672  0036                     	ds	2
  1673  0038                     _cnt:	
  1674  0038                     	ds	2
  1675                           
  1676                           	psect	cstackCOMMON
  1677  0070                     __pcstackCOMMON:	
  1678  0070                     ?_glcd_readbusy:	
  1679  0070                     ??_glcd_readbusy:	
  1680                           ; 1 bytes @ 0x0
  1681                           
  1682  0070                     ?_glcd_en:	
  1683                           ; 1 bytes @ 0x0
  1684                           
  1685  0070                     ??_glcd_en:	
  1686                           ; 1 bytes @ 0x0
  1687                           
  1688  0070                     ?_delay_ms:	
  1689                           ; 1 bytes @ 0x0
  1690                           
  1691  0070                     ?_glcd_init:	
  1692                           ; 1 bytes @ 0x0
  1693                           
  1694  0070                     ?_glcd_clear:	
  1695                           ; 1 bytes @ 0x0
  1696                           
  1697  0070                     ?_main:	
  1698                           ; 1 bytes @ 0x0
  1699                           
  1700  0070                     ?___bmul:	
  1701                           ; 1 bytes @ 0x0
  1702                           
  1703  0070                     ?___wmul:	
  1704                           ; 1 bytes @ 0x0
  1705                           
  1706  0070                     glcd_readbusy@i:	
  1707                           ; 2 bytes @ 0x0
  1708                           
  1709  0070                     ___bmul@multiplicand:	
  1710                           ; 1 bytes @ 0x0
  1711                           
  1712  0070                     delay_ms@count:	
  1713                           ; 1 bytes @ 0x0
  1714                           
  1715  0070                     ___wmul@multiplier:	
  1716                           ; 2 bytes @ 0x0
  1717                           
  1718                           
  1719                           ; 2 bytes @ 0x0
  1720  0070                     	ds	1
  1721  0071                     ?_glcd_writelcd:	
  1722  0071                     ??___bmul:	
  1723                           ; 1 bytes @ 0x1
  1724                           
  1725  0071                     glcd_writelcd@cselect:	
  1726                           ; 1 bytes @ 0x1
  1727                           
  1728                           
  1729                           ; 1 bytes @ 0x1
  1730  0071                     	ds	1
  1731  0072                     ??_glcd_writelcd:	
  1732  0072                     ??_delay_ms:	
  1733                           ; 1 bytes @ 0x2
  1734                           
  1735  0072                     ___bmul@product:	
  1736                           ; 1 bytes @ 0x2
  1737                           
  1738  0072                     ___wmul@multiplicand:	
  1739                           ; 1 bytes @ 0x2
  1740                           
  1741                           
  1742                           ; 2 bytes @ 0x2
  1743  0072                     	ds	1
  1744  0073                     glcd_writelcd@cmd:	
  1745  0073                     ___bmul@multiplier:	
  1746                           ; 1 bytes @ 0x3
  1747                           
  1748                           
  1749                           ; 1 bytes @ 0x3
  1750  0073                     	ds	1
  1751  0074                     ??_glcd_init:	
  1752  0074                     ??___wmul:	
  1753                           ; 1 bytes @ 0x4
  1754                           
  1755  0074                     delay_ms@dly:	
  1756                           ; 1 bytes @ 0x4
  1757                           
  1758  0074                     ___wmul@product:	
  1759                           ; 2 bytes @ 0x4
  1760                           
  1761                           
  1762                           ; 2 bytes @ 0x4
  1763  0074                     	ds	2
  1764  0076                     ?_glcd_writelcdd:	
  1765  0076                     glcd_writelcdd@c:	
  1766                           ; 1 bytes @ 0x6
  1767                           
  1768                           
  1769                           ; 1 bytes @ 0x6
  1770  0076                     	ds	1
  1771  0077                     glcd_writelcdd@page:	
  1772                           
  1773                           ; 1 bytes @ 0x7
  1774  0077                     	ds	1
  1775  0078                     ??_glcd_writelcdd:	
  1776                           
  1777                           ; 1 bytes @ 0x8
  1778  0078                     	ds	1
  1779  0079                     glcd_writelcdd@cl:	
  1780                           
  1781                           ; 1 bytes @ 0x9
  1782  0079                     	ds	1
  1783  007A                     glcd_writelcdd@cmd:	
  1784                           
  1785                           ; 1 bytes @ 0xA
  1786  007A                     	ds	1
  1787  007B                     ??_glcd_clear:	
  1788  007B                     ?_glcd_chr:	
  1789                           ; 1 bytes @ 0xB
  1790                           
  1791  007B                     glcd_chr@c:	
  1792                           ; 1 bytes @ 0xB
  1793                           
  1794                           
  1795                           ; 1 bytes @ 0xB
  1796  007B                     	ds	1
  1797  007C                     glcd_chr@page:	
  1798                           
  1799                           ; 1 bytes @ 0xC
  1800  007C                     	ds	1
  1801                           
  1802                           	psect	cstackBANK0
  1803  0020                     __pcstackBANK0:	
  1804  0020                     ??_glcd_chr:	
  1805  0020                     glcd_clear@l:	
  1806                           ; 1 bytes @ 0x0
  1807                           
  1808                           
  1809                           ; 2 bytes @ 0x0
  1810  0020                     	ds	2
  1811  0022                     glcd_clear@m:	
  1812                           
  1813                           ; 2 bytes @ 0x2
  1814  0022                     	ds	4
  1815  0026                     glcd_chr@moji:	
  1816                           
  1817                           ; 1 bytes @ 0x6
  1818  0026                     	ds	1
  1819  0027                     glcd_chr@i:	
  1820                           
  1821                           ; 2 bytes @ 0x7
  1822  0027                     	ds	2
  1823  0029                     ?_glcd_str:	
  1824  0029                     glcd_str@str:	
  1825                           ; 1 bytes @ 0x9
  1826                           
  1827                           
  1828                           ; 2 bytes @ 0x9
  1829  0029                     	ds	2
  1830  002B                     glcd_str@c:	
  1831                           
  1832                           ; 1 bytes @ 0xB
  1833  002B                     	ds	1
  1834  002C                     glcd_str@page:	
  1835                           
  1836                           ; 1 bytes @ 0xC
  1837  002C                     	ds	1
  1838  002D                     ??_glcd_str:	
  1839                           
  1840                           ; 1 bytes @ 0xD
  1841  002D                     	ds	3
  1842  0030                     glcd_str@i:	
  1843                           
  1844                           ; 2 bytes @ 0x10
  1845  0030                     	ds	2
  1846  0032                     ??_main:	
  1847                           
  1848                           ; 1 bytes @ 0x12
  1849  0032                     	ds	2
  1850                           
  1851                           	psect	maintext
  1852  06CC                     __pmaintext:	
  1853 ;;
  1854 ;;Main: autosize = 0, tempsize = 2, incstack = 0, save=0
  1855 ;;
  1856 ;; *************** function _main *****************
  1857 ;; Defined at:
  1858 ;;		line 23 in file "C:\Users\yuya\Desktop\ROBOCON\pic program\PIC_16F1939\glcd\main.c"
  1859 ;; Parameters:    Size  Location     Type
  1860 ;;		None
  1861 ;; Auto vars:     Size  Location     Type
  1862 ;;  temp            3    0        float 
  1863 ;;  log             2    0        int 
  1864 ;; Return value:  Size  Location     Type
  1865 ;;                  1    wreg      void 
  1866 ;; Registers used:
  1867 ;;		wreg, fsr0l, fsr0h, status,2, status,0, pclath, cstack
  1868 ;; Tracked objects:
  1869 ;;		On entry : B1F/0
  1870 ;;		On exit  : 0/0
  1871 ;;		Unchanged: 0/0
  1872 ;; Data sizes:     COMMON   BANK0   BANK1   BANK2   BANK3   BANK4   BANK5   BANK6   BANK7   BANK8   BANK9  BANK10  BANK1
      +1  BANK12
  1873 ;;      Params:         0       0       0       0       0       0       0       0       0       0       0       0       
      +0       0
  1874 ;;      Locals:         0       0       0       0       0       0       0       0       0       0       0       0       
      +0       0
  1875 ;;      Temps:          0       2       0       0       0       0       0       0       0       0       0       0       
      +0       0
  1876 ;;      Totals:         0       2       0       0       0       0       0       0       0       0       0       0       
      +0       0
  1877 ;;Total ram usage:        2 bytes
  1878 ;; Hardware stack levels required when called:    5
  1879 ;; This function calls:
  1880 ;;		_delay_ms
  1881 ;;		_glcd_clear
  1882 ;;		_glcd_init
  1883 ;;		_glcd_str
  1884 ;; This function is called by:
  1885 ;;		Startup code after reset
  1886 ;; This function uses a non-reentrant model
  1887 ;;
  1888                           
  1889                           
  1890                           ;psect for function _main
  1891  06CC                     _main:	
  1892                           
  1893                           ;main.c: 24: OSCCON = 0x70 ;
  1894                           
  1895                           ;incstack = 0
  1896                           ; Regs used in _main: [wreg-fsr0h+status,2+status,0+pclath+cstack]
  1897  06CC  3070               	movlw	112
  1898  06CD  0021               	movlb	1	; select bank1
  1899  06CE  0099               	movwf	25	;volatile
  1900                           
  1901                           ;main.c: 25: CM1CON0 = 0 ;
  1902  06CF  0022               	movlb	2	; select bank2
  1903  06D0  0191               	clrf	17	;volatile
  1904                           
  1905                           ;main.c: 26: CM2CON0 = 0 ;
  1906  06D1  0193               	clrf	19	;volatile
  1907                           
  1908                           ;main.c: 27: ANSELA = 0b11 ;
  1909  06D2  3003               	movlw	3
  1910  06D3  0023               	movlb	3	; select bank3
  1911  06D4  008C               	movwf	12	;volatile
  1912                           
  1913                           ;main.c: 28: ANSELB = 0 ;
  1914  06D5  018D               	clrf	13	;volatile
  1915                           
  1916                           ;main.c: 29: ANSELD = 0 ;
  1917  06D6  018F               	clrf	15	;volatile
  1918                           
  1919                           ;main.c: 30: ANSELE = 0 ;
  1920  06D7  0190               	clrf	16	;volatile
  1921                           
  1922                           ;main.c: 31: TRISA = 0b11 ;
  1923  06D8  3003               	movlw	3
  1924  06D9  0021               	movlb	1	; select bank1
  1925  06DA  008C               	movwf	12	;volatile
  1926                           
  1927                           ;main.c: 32: TRISB = 0 ;
  1928  06DB  018D               	clrf	13	;volatile
  1929                           
  1930                           ;main.c: 33: TRISC = 0b00011000 ;
  1931  06DC  3018               	movlw	24
  1932  06DD  008E               	movwf	14	;volatile
  1933                           
  1934                           ;main.c: 34: TRISD = 0 ;
  1935  06DE  018F               	clrf	15	;volatile
  1936                           
  1937                           ;main.c: 35: TRISE = 0 ;
  1938  06DF  0190               	clrf	16	;volatile
  1939                           
  1940                           ;main.c: 36: RD6 = 1 ;
  1941  06E0  0020               	movlb	0	; select bank0
  1942  06E1  170F               	bsf	15,6	;volatile
  1943                           
  1944                           ;main.c: 37: PORTA = 0 ;
  1945  06E2  018C               	clrf	12	;volatile
  1946                           
  1947                           ;main.c: 38: PORTB = 0 ;
  1948  06E3  018D               	clrf	13	;volatile
  1949                           
  1950                           ;main.c: 39: PORTC = 0 ;
  1951  06E4  018E               	clrf	14	;volatile
  1952                           
  1953                           ;main.c: 40: PORTD = 0 ;
  1954  06E5  018F               	clrf	15	;volatile
  1955                           
  1956                           ;main.c: 41: PORTE = 0 ;
  1957  06E6  0190               	clrf	16	;volatile
  1958                           
  1959                           ;main.c: 42: FVRCON = 0b10000010 ;
  1960  06E7  3082               	movlw	130
  1961  06E8  0022               	movlb	2	; select bank2
  1962  06E9  0097               	movwf	23	;volatile
  1963                           
  1964                           ;main.c: 43: ADCON0 = 0b00000001 ;
  1965  06EA  3001               	movlw	1
  1966  06EB  0021               	movlb	1	; select bank1
  1967  06EC  009D               	movwf	29	;volatile
  1968                           
  1969                           ;main.c: 44: ADCON1 = 0b11110011 ;
  1970  06ED  30F3               	movlw	243
  1971  06EE  009E               	movwf	30	;volatile
  1972                           
  1973                           ;main.c: 45: delay_ms(100) ;
  1974  06EF  3064               	movlw	100
  1975  06F0  00F0               	movwf	delay_ms@count
  1976  06F1  3000               	movlw	0
  1977  06F2  00F1               	movwf	delay_ms@count+1
  1978  06F3  3185  250B  3186   	fcall	_delay_ms
  1979                           
  1980                           ;main.c: 46: glcd_init() ;
  1981  06F6  3185  255F  3186   	fcall	_glcd_init
  1982                           
  1983                           ;main.c: 47: glcd_clear() ;
  1984  06F9  3186  2603  3186   	fcall	_glcd_clear
  1985  06FC                     l1354:	
  1986                           ;main.c: 48: float temp ;
  1987                           ;main.c: 49: int log ;
  1988                           ;main.c: 50: while(1) {
  1989                           
  1990                           
  1991                           ;main.c: 52: glcd_clear() ;
  1992  06FC  3186  2603  3186   	fcall	_glcd_clear
  1993                           
  1994                           ;main.c: 53: glcd_str("#include <xc.h>" ,0,0) ;
  1995  06FF  30E4               	movlw	low (STR_1| (0+32768))
  1996  0700  0020               	movlb	0	; select bank0
  1997  0701  00A9               	movwf	glcd_str@str
  1998  0702  308B               	movlw	high (STR_1| (0+32768))
  1999  0703  00AA               	movwf	glcd_str@str+1
  2000  0704  01AB               	clrf	glcd_str@c
  2001  0705  01AC               	clrf	glcd_str@page
  2002  0706  3185  258D  3186   	fcall	_glcd_str
  2003                           
  2004                           ;main.c: 54: glcd_str("void main() {" ,0,2) ;
  2005  0709  3002               	movlw	low (STR_2| (0+32768))
  2006  070A  0020               	movlb	0	; select bank0
  2007  070B  00A9               	movwf	glcd_str@str
  2008  070C  308C               	movlw	high (STR_2| (0+32768))
  2009  070D  00AA               	movwf	glcd_str@str+1
  2010  070E  01AB               	clrf	glcd_str@c
  2011  070F  3002               	movlw	2
  2012  0710  00B2               	movwf	??_main
  2013  0711  0832               	movf	??_main,w
  2014  0712  00AC               	movwf	glcd_str@page
  2015  0713  3185  258D  3186   	fcall	_glcd_str
  2016                           
  2017                           ;main.c: 55: glcd_str("    glcd_init() ;" ,0,3) ;
  2018  0716  30D2               	movlw	low (STR_3| (0+32768))
  2019  0717  0020               	movlb	0	; select bank0
  2020  0718  00A9               	movwf	glcd_str@str
  2021  0719  308B               	movlw	high (STR_3| (0+32768))
  2022  071A  00AA               	movwf	glcd_str@str+1
  2023  071B  01AB               	clrf	glcd_str@c
  2024  071C  3003               	movlw	3
  2025  071D  00B2               	movwf	??_main
  2026  071E  0832               	movf	??_main,w
  2027  071F  00AC               	movwf	glcd_str@page
  2028  0720  3185  258D  3186   	fcall	_glcd_str
  2029                           
  2030                           ;main.c: 56: glcd_str("}" ,0,4) ;
  2031  0723  3010               	movlw	low (STR_4| (0+32768))
  2032  0724  0020               	movlb	0	; select bank0
  2033  0725  00A9               	movwf	glcd_str@str
  2034  0726  308C               	movlw	high (STR_4| (0+32768))
  2035  0727  00AA               	movwf	glcd_str@str+1
  2036  0728  01AB               	clrf	glcd_str@c
  2037  0729  3004               	movlw	4
  2038  072A  00B2               	movwf	??_main
  2039  072B  0832               	movf	??_main,w
  2040  072C  00AC               	movwf	glcd_str@page
  2041  072D  3185  258D  3186   	fcall	_glcd_str
  2042                           
  2043                           ;main.c: 57: glcd_str("This program was ",0,6) ;
  2044  0730  30C0               	movlw	low (STR_5| (0+32768))
  2045  0731  0020               	movlb	0	; select bank0
  2046  0732  00A9               	movwf	glcd_str@str
  2047  0733  308B               	movlw	high (STR_5| (0+32768))
  2048  0734  00AA               	movwf	glcd_str@str+1
  2049  0735  01AB               	clrf	glcd_str@c
  2050  0736  3006               	movlw	6
  2051  0737  00B2               	movwf	??_main
  2052  0738  0832               	movf	??_main,w
  2053  0739  00AC               	movwf	glcd_str@page
  2054  073A  3185  258D  3186   	fcall	_glcd_str
  2055                           
  2056                           ;main.c: 58: glcd_str("maked by  ",55,7) ;
  2057  073D  30F4               	movlw	low (STR_6| (0+32768))
  2058  073E  0020               	movlb	0	; select bank0
  2059  073F  00A9               	movwf	glcd_str@str
  2060  0740  308B               	movlw	high (STR_6| (0+32768))
  2061  0741  00AA               	movwf	glcd_str@str+1
  2062  0742  3037               	movlw	55
  2063  0743  00B2               	movwf	??_main
  2064  0744  0832               	movf	??_main,w
  2065  0745  00AB               	movwf	glcd_str@c
  2066  0746  3007               	movlw	7
  2067  0747  00B3               	movwf	??_main+1
  2068  0748  0833               	movf	??_main+1,w
  2069  0749  00AC               	movwf	glcd_str@page
  2070  074A  3185  258D  3186   	fcall	_glcd_str
  2071                           
  2072                           ;main.c: 60: delay_ms(4000) ;
  2073  074D  30A0               	movlw	160
  2074  074E  00F0               	movwf	delay_ms@count
  2075  074F  300F               	movlw	15
  2076  0750  00F1               	movwf	delay_ms@count+1
  2077  0751  3185  250B  3186   	fcall	_delay_ms
  2078  0754  2EFC               	goto	l1354
  2079                           
  2080                           ;main.c: 61: }
  2081                           ;main.c: 63: do { __builtin_software_breakpoint(); asm("reset"); }while(0) ;
  2082  0755  0003               	dw	3
  2083  0756  0001               	reset	;# 
  2084  0757                     __end_of_main:	
  2085                           
  2086                           	psect	text1
  2087  058D                     __ptext1:	
  2088 ;; *************** function _glcd_str *****************
  2089 ;; Defined at:
  2090 ;;		line 171 in file "C:\Users\yuya\Desktop\ROBOCON\pic program\PIC_16F1939\glcd\glcd.c"
  2091 ;; Parameters:    Size  Location     Type
  2092 ;;  str             2    9[BANK0 ] PTR unsigned char 
  2093 ;;		 -> STR_6(14), STR_5(18), STR_4(2), STR_3(18), 
  2094 ;;		 -> STR_2(14), STR_1(16), 
  2095 ;;  c               1   11[BANK0 ] unsigned char 
  2096 ;;  page            1   12[BANK0 ] unsigned char 
  2097 ;; Auto vars:     Size  Location     Type
  2098 ;;  i               2   16[BANK0 ] int 
  2099 ;; Return value:  Size  Location     Type
  2100 ;;                  1    wreg      void 
  2101 ;; Registers used:
  2102 ;;		wreg, fsr0l, fsr0h, status,2, status,0, pclath, cstack
  2103 ;; Tracked objects:
  2104 ;;		On entry : 0/0
  2105 ;;		On exit  : 0/0
  2106 ;;		Unchanged: 0/0
  2107 ;; Data sizes:     COMMON   BANK0   BANK1   BANK2   BANK3   BANK4   BANK5   BANK6   BANK7   BANK8   BANK9  BANK10  BANK1
      +1  BANK12
  2108 ;;      Params:         0       4       0       0       0       0       0       0       0       0       0       0       
      +0       0
  2109 ;;      Locals:         0       2       0       0       0       0       0       0       0       0       0       0       
      +0       0
  2110 ;;      Temps:          0       3       0       0       0       0       0       0       0       0       0       0       
      +0       0
  2111 ;;      Totals:         0       9       0       0       0       0       0       0       0       0       0       0       
      +0       0
  2112 ;;Total ram usage:        9 bytes
  2113 ;; Hardware stack levels used:    1
  2114 ;; Hardware stack levels required when called:    4
  2115 ;; This function calls:
  2116 ;;		___bmul
  2117 ;;		_delay_ms
  2118 ;;		_glcd_chr
  2119 ;; This function is called by:
  2120 ;;		_main
  2121 ;; This function uses a non-reentrant model
  2122 ;;
  2123                           
  2124                           
  2125                           ;psect for function _glcd_str
  2126  058D                     _glcd_str:	
  2127                           
  2128                           ;glcd.c: 173: int i;
  2129                           ;glcd.c: 174: i = 0 ;
  2130                           
  2131                           ;incstack = 0
  2132                           ; Regs used in _glcd_str: [wreg-fsr0h+status,2+status,0+pclath+cstack]
  2133  058D  0020               	movlb	0	; select bank0
  2134  058E  01B0               	clrf	glcd_str@i
  2135  058F  01B1               	clrf	glcd_str@i+1
  2136  0590                     l1244:	
  2137                           ;glcd.c: 175: while(str[i] != 0x00){
  2138                           
  2139  0590  0829               	movf	glcd_str@str,w
  2140  0591  0730               	addwf	glcd_str@i,w
  2141  0592  0084               	movwf	4
  2142  0593  082A               	movf	glcd_str@str+1,w
  2143  0594  3D31               	addwfc	glcd_str@i+1,w
  2144  0595  0085               	movwf	5
  2145  0596  0012               	moviw fsr0++
  2146  0597  1903               	btfsc	3,2
  2147  0598  0008               	return
  2148                           
  2149                           ;glcd.c: 176: glcd_chr(str[i],c+(6*i),page) ;
  2150  0599  3006               	movlw	6
  2151  059A  00AD               	movwf	??_glcd_str
  2152  059B  082D               	movf	??_glcd_str,w
  2153  059C  00F0               	movwf	___bmul@multiplicand
  2154  059D  0830               	movf	glcd_str@i,w
  2155  059E  3184  24FA  3185   	fcall	___bmul
  2156  05A1  0020               	movlb	0	; select bank0
  2157  05A2  072B               	addwf	glcd_str@c,w
  2158  05A3  00AE               	movwf	??_glcd_str+1
  2159  05A4  082E               	movf	??_glcd_str+1,w
  2160  05A5  00FB               	movwf	glcd_chr@c
  2161  05A6  082C               	movf	glcd_str@page,w
  2162  05A7  00AF               	movwf	??_glcd_str+2
  2163  05A8  082F               	movf	??_glcd_str+2,w
  2164  05A9  00FC               	movwf	glcd_chr@page
  2165  05AA  0829               	movf	glcd_str@str,w
  2166  05AB  0730               	addwf	glcd_str@i,w
  2167  05AC  0084               	movwf	4
  2168  05AD  082A               	movf	glcd_str@str+1,w
  2169  05AE  3D31               	addwfc	glcd_str@i+1,w
  2170  05AF  0085               	movwf	5
  2171  05B0  0800               	movf	0,w	;code access
  2172  05B1  3185  25C1  3185   	fcall	_glcd_chr
  2173                           
  2174                           ;glcd.c: 177: delay_ms(150) ;
  2175  05B4  3096               	movlw	150
  2176  05B5  00F0               	movwf	delay_ms@count
  2177  05B6  3000               	movlw	0
  2178  05B7  00F1               	movwf	delay_ms@count+1
  2179  05B8  3185  250B  3185   	fcall	_delay_ms
  2180                           
  2181                           ;glcd.c: 178: i++ ;
  2182  05BB  3001               	movlw	1
  2183  05BC  0020               	movlb	0	; select bank0
  2184  05BD  07B0               	addwf	glcd_str@i,f
  2185  05BE  3000               	movlw	0
  2186  05BF  3DB1               	addwfc	glcd_str@i+1,f
  2187  05C0  2D90               	goto	l1244
  2188  05C1                     __end_of_glcd_str:	
  2189                           
  2190                           	psect	text2
  2191  05C1                     __ptext2:	
  2192 ;; *************** function _glcd_chr *****************
  2193 ;; Defined at:
  2194 ;;		line 163 in file "C:\Users\yuya\Desktop\ROBOCON\pic program\PIC_16F1939\glcd\glcd.c"
  2195 ;; Parameters:    Size  Location     Type
  2196 ;;  moji            1    wreg     unsigned char 
  2197 ;;  c               1   11[COMMON] unsigned char 
  2198 ;;  page            1   12[COMMON] unsigned char 
  2199 ;; Auto vars:     Size  Location     Type
  2200 ;;  moji            1    6[BANK0 ] unsigned char 
  2201 ;;  i               2    7[BANK0 ] int 
  2202 ;; Return value:  Size  Location     Type
  2203 ;;                  1    wreg      void 
  2204 ;; Registers used:
  2205 ;;		wreg, fsr0l, fsr0h, status,2, status,0, pclath, cstack
  2206 ;; Tracked objects:
  2207 ;;		On entry : 0/0
  2208 ;;		On exit  : 0/0
  2209 ;;		Unchanged: 0/0
  2210 ;; Data sizes:     COMMON   BANK0   BANK1   BANK2   BANK3   BANK4   BANK5   BANK6   BANK7   BANK8   BANK9  BANK10  BANK1
      +1  BANK12
  2211 ;;      Params:         2       0       0       0       0       0       0       0       0       0       0       0       
      +0       0
  2212 ;;      Locals:         0       3       0       0       0       0       0       0       0       0       0       0       
      +0       0
  2213 ;;      Temps:          0       6       0       0       0       0       0       0       0       0       0       0       
      +0       0
  2214 ;;      Totals:         2       9       0       0       0       0       0       0       0       0       0       0       
      +0       0
  2215 ;;Total ram usage:       11 bytes
  2216 ;; Hardware stack levels used:    1
  2217 ;; Hardware stack levels required when called:    3
  2218 ;; This function calls:
  2219 ;;		___wmul
  2220 ;;		_glcd_writelcdd
  2221 ;; This function is called by:
  2222 ;;		_glcd_str
  2223 ;; This function uses a non-reentrant model
  2224 ;;
  2225                           
  2226                           
  2227                           ;psect for function _glcd_chr
  2228  05C1                     _glcd_chr:	
  2229                           
  2230                           ;incstack = 0
  2231                           ; Regs used in _glcd_chr: [wreg-fsr0h+status,2+status,0+pclath+cstack]
  2232                           ;glcd_chr@moji stored from wreg
  2233  05C1  0020               	movlb	0	; select bank0
  2234  05C2  00A6               	movwf	glcd_chr@moji
  2235                           
  2236                           ;glcd.c: 165: int i ;
  2237                           ;glcd.c: 166: for(i=0;i<5;i++){
  2238  05C3  01A7               	clrf	glcd_chr@i
  2239  05C4  01A8               	clrf	glcd_chr@i+1
  2240  05C5                     L1:	
  2241  05C5  0828               	movf	glcd_chr@i+1,w
  2242  05C6  3A80               	xorlw	128
  2243  05C7  00A0               	movwf	??_glcd_chr
  2244  05C8  3080               	movlw	128
  2245  05C9  0220               	subwf	??_glcd_chr,w
  2246  05CA  1D03               	skipz
  2247  05CB  2DCE               	goto	u1375
  2248  05CC  3005               	movlw	5
  2249  05CD  0227               	subwf	glcd_chr@i,w
  2250  05CE                     u1375:	
  2251  05CE  1803               	btfsc	3,0
  2252  05CF  0008               	return
  2253                           
  2254                           ;glcd.c: 167: glcd_writelcdd(Font[moji-32][i],c+i,page);
  2255  05D0  087B               	movf	glcd_chr@c,w
  2256  05D1  0020               	movlb	0	; select bank0
  2257  05D2  0727               	addwf	glcd_chr@i,w
  2258  05D3  00A0               	movwf	??_glcd_chr
  2259  05D4  0820               	movf	??_glcd_chr,w
  2260  05D5  00F6               	movwf	glcd_writelcdd@c
  2261  05D6  087C               	movf	glcd_chr@page,w
  2262  05D7  00A1               	movwf	??_glcd_chr+1
  2263  05D8  0821               	movf	??_glcd_chr+1,w
  2264  05D9  00F7               	movwf	glcd_writelcdd@page
  2265  05DA  0826               	movf	glcd_chr@moji,w
  2266  05DB  3EE0               	addlw	224
  2267  05DC  00F0               	movwf	___wmul@multiplier
  2268  05DD  30FF               	movlw	255
  2269  05DE  1803               	skipnc
  2270  05DF  3000               	movlw	0
  2271  05E0  00F1               	movwf	___wmul@multiplier+1
  2272  05E1  3005               	movlw	5
  2273  05E2  00F2               	movwf	___wmul@multiplicand
  2274  05E3  3000               	movlw	0
  2275  05E4  00F3               	movwf	___wmul@multiplicand+1
  2276  05E5  3185  2525  3185   	fcall	___wmul
  2277  05E8  3000               	movlw	low (_Font| (0+32768))
  2278  05E9  0020               	movlb	0	; select bank0
  2279  05EA  00A2               	movwf	??_glcd_chr+2
  2280  05EB  3088               	movlw	high (_Font| (0+32768))
  2281  05EC  00A3               	movwf	??_glcd_chr+3
  2282  05ED  0870               	movf	?___wmul,w
  2283  05EE  0722               	addwf	??_glcd_chr+2,w
  2284  05EF  00A4               	movwf	??_glcd_chr+4
  2285  05F0  0871               	movf	?___wmul+1,w
  2286  05F1  3D23               	addwfc	??_glcd_chr+3,w
  2287  05F2  00A5               	movwf	??_glcd_chr+5
  2288  05F3  0824               	movf	??_glcd_chr+4,w
  2289  05F4  0727               	addwf	glcd_chr@i,w
  2290  05F5  0084               	movwf	4
  2291  05F6  0825               	movf	??_glcd_chr+5,w
  2292  05F7  3D28               	addwfc	glcd_chr@i+1,w
  2293  05F8  0085               	movwf	5
  2294  05F9  0800               	movf	0,w	;code access
  2295  05FA  3187  2757  3185   	fcall	_glcd_writelcdd
  2296  05FD  3001               	movlw	1
  2297  05FE  0020               	movlb	0	; select bank0
  2298  05FF  07A7               	addwf	glcd_chr@i,f
  2299  0600  3000               	movlw	0
  2300  0601  3DA8               	addwfc	glcd_chr@i+1,f
  2301  0602  2DC5               	goto	L1
  2302  0603                     __end_of_glcd_chr:	
  2303                           
  2304                           	psect	text3
  2305  0525                     __ptext3:	
  2306 ;; *************** function ___wmul *****************
  2307 ;; Defined at:
  2308 ;;		line 15 in file "C:\Program Files (x86)\Microchip\xc8\v1.37\sources\common\Umul16.c"
  2309 ;; Parameters:    Size  Location     Type
  2310 ;;  multiplier      2    0[COMMON] unsigned int 
  2311 ;;  multiplicand    2    2[COMMON] unsigned int 
  2312 ;; Auto vars:     Size  Location     Type
  2313 ;;  product         2    4[COMMON] unsigned int 
  2314 ;; Return value:  Size  Location     Type
  2315 ;;                  2    0[COMMON] unsigned int 
  2316 ;; Registers used:
  2317 ;;		wreg, status,2, status,0
  2318 ;; Tracked objects:
  2319 ;;		On entry : 0/0
  2320 ;;		On exit  : 0/0
  2321 ;;		Unchanged: 0/0
  2322 ;; Data sizes:     COMMON   BANK0   BANK1   BANK2   BANK3   BANK4   BANK5   BANK6   BANK7   BANK8   BANK9  BANK10  BANK1
      +1  BANK12
  2323 ;;      Params:         4       0       0       0       0       0       0       0       0       0       0       0       
      +0       0
  2324 ;;      Locals:         2       0       0       0       0       0       0       0       0       0       0       0       
      +0       0
  2325 ;;      Temps:          0       0       0       0       0       0       0       0       0       0       0       0       
      +0       0
  2326 ;;      Totals:         6       0       0       0       0       0       0       0       0       0       0       0       
      +0       0
  2327 ;;Total ram usage:        6 bytes
  2328 ;; Hardware stack levels used:    1
  2329 ;; This function calls:
  2330 ;;		Nothing
  2331 ;; This function is called by:
  2332 ;;		_glcd_chr
  2333 ;; This function uses a non-reentrant model
  2334 ;;
  2335                           
  2336                           
  2337                           ;psect for function ___wmul
  2338  0525                     ___wmul:	
  2339                           
  2340                           ;incstack = 0
  2341                           ; Regs used in ___wmul: [wreg+status,2+status,0]
  2342  0525  01F4               	clrf	___wmul@product
  2343  0526  01F5               	clrf	___wmul@product+1
  2344  0527                     l1156:	
  2345  0527  1C70               	btfss	___wmul@multiplier,0
  2346  0528  2D2D               	goto	l350
  2347  0529  0872               	movf	___wmul@multiplicand,w
  2348  052A  07F4               	addwf	___wmul@product,f
  2349  052B  0873               	movf	___wmul@multiplicand+1,w
  2350  052C  3DF5               	addwfc	___wmul@product+1,f
  2351  052D                     l350:	
  2352  052D  3001               	movlw	1
  2353  052E                     u1335:	
  2354  052E  35F2               	lslf	___wmul@multiplicand,f
  2355  052F  0DF3               	rlf	___wmul@multiplicand+1,f
  2356  0530  0B89               	decfsz	9,f
  2357  0531  2D2E               	goto	u1335
  2358  0532  3001               	movlw	1
  2359  0533                     u1345:	
  2360  0533  36F1               	lsrf	___wmul@multiplier+1,f
  2361  0534  0CF0               	rrf	___wmul@multiplier,f
  2362  0535  0B89               	decfsz	9,f
  2363  0536  2D33               	goto	u1345
  2364  0537  0870               	movf	___wmul@multiplier,w
  2365  0538  0471               	iorwf	___wmul@multiplier+1,w
  2366  0539  1D03               	btfss	3,2
  2367  053A  2D27               	goto	l1156
  2368  053B  0875               	movf	___wmul@product+1,w
  2369  053C  00F1               	movwf	?___wmul+1
  2370  053D  0874               	movf	___wmul@product,w
  2371  053E  00F0               	movwf	?___wmul
  2372  053F  0008               	return
  2373  0540                     __end_of___wmul:	
  2374                           
  2375                           	psect	text4
  2376  050B                     __ptext4:	
  2377 ;; *************** function _delay_ms *****************
  2378 ;; Defined at:
  2379 ;;		line 6 in file "C:\Users\yuya\Desktop\ROBOCON\pic program\PIC_16F1939\glcd\glcd.c"
  2380 ;; Parameters:    Size  Location     Type
  2381 ;;  count           2    0[COMMON] unsigned int 
  2382 ;; Auto vars:     Size  Location     Type
  2383 ;;  dly             2    4[COMMON] int 
  2384 ;; Return value:  Size  Location     Type
  2385 ;;                  1    wreg      void 
  2386 ;; Registers used:
  2387 ;;		wreg
  2388 ;; Tracked objects:
  2389 ;;		On entry : 0/0
  2390 ;;		On exit  : 0/0
  2391 ;;		Unchanged: 0/0
  2392 ;; Data sizes:     COMMON   BANK0   BANK1   BANK2   BANK3   BANK4   BANK5   BANK6   BANK7   BANK8   BANK9  BANK10  BANK1
      +1  BANK12
  2393 ;;      Params:         2       0       0       0       0       0       0       0       0       0       0       0       
      +0       0
  2394 ;;      Locals:         2       0       0       0       0       0       0       0       0       0       0       0       
      +0       0
  2395 ;;      Temps:          2       0       0       0       0       0       0       0       0       0       0       0       
      +0       0
  2396 ;;      Totals:         6       0       0       0       0       0       0       0       0       0       0       0       
      +0       0
  2397 ;;Total ram usage:        6 bytes
  2398 ;; Hardware stack levels used:    1
  2399 ;; This function calls:
  2400 ;;		Nothing
  2401 ;; This function is called by:
  2402 ;;		_glcd_str
  2403 ;;		_main
  2404 ;; This function uses a non-reentrant model
  2405 ;;
  2406                           
  2407                           
  2408                           ;psect for function _delay_ms
  2409  050B                     _delay_ms:	
  2410                           
  2411                           ;glcd.c: 7: int dly ;
  2412                           ;glcd.c: 8: for(dly=1;dly<=count;dly++){
  2413                           
  2414                           ;incstack = 0
  2415                           ; Regs used in _delay_ms: [wreg]
  2416  050B  3001               	movlw	1
  2417  050C  00F4               	movwf	delay_ms@dly
  2418  050D  3000               	movlw	0
  2419  050E  00F5               	movwf	delay_ms@dly+1
  2420  050F                     l47:	
  2421  050F  0875               	movf	delay_ms@dly+1,w
  2422  0510  0271               	subwf	delay_ms@count+1,w
  2423  0511  1D03               	skipz
  2424  0512  2D15               	goto	u1365
  2425  0513  0874               	movf	delay_ms@dly,w
  2426  0514  0270               	subwf	delay_ms@count,w
  2427  0515                     u1365:	
  2428  0515  1C03               	btfss	3,0
  2429  0516  0008               	return
  2430                           
  2431                           ;glcd.c: 9: _delay((unsigned long)((1)*(8000000/4000.0))) ;
  2432  0517  3003               	movlw	3
  2433  0518  00F3               	movwf	??_delay_ms+1
  2434  0519  3097               	movlw	151
  2435  051A  00F2               	movwf	??_delay_ms
  2436  051B                     u1567:	
  2437  051B  0BF2               	decfsz	??_delay_ms,f
  2438  051C  2D1B               	goto	u1567
  2439  051D  0BF3               	decfsz	??_delay_ms+1,f
  2440  051E  2D1B               	goto	u1567
  2441  051F  3200               	nop2
  2442  0520  3001               	movlw	1
  2443  0521  07F4               	addwf	delay_ms@dly,f
  2444  0522  3000               	movlw	0
  2445  0523  3DF5               	addwfc	delay_ms@dly+1,f
  2446  0524  2D0F               	goto	l47
  2447  0525                     __end_of_delay_ms:	
  2448                           
  2449                           	psect	text5
  2450  04FA                     __ptext5:	
  2451 ;; *************** function ___bmul *****************
  2452 ;; Defined at:
  2453 ;;		line 4 in file "C:\Program Files (x86)\Microchip\xc8\v1.37\sources\common\Umul8.c"
  2454 ;; Parameters:    Size  Location     Type
  2455 ;;  multiplier      1    wreg     unsigned char 
  2456 ;;  multiplicand    1    0[COMMON] unsigned char 
  2457 ;; Auto vars:     Size  Location     Type
  2458 ;;  multiplier      1    3[COMMON] unsigned char 
  2459 ;;  product         1    2[COMMON] unsigned char 
  2460 ;; Return value:  Size  Location     Type
  2461 ;;                  1    wreg      unsigned char 
  2462 ;; Registers used:
  2463 ;;		wreg, status,2, status,0
  2464 ;; Tracked objects:
  2465 ;;		On entry : 0/0
  2466 ;;		On exit  : 0/0
  2467 ;;		Unchanged: 0/0
  2468 ;; Data sizes:     COMMON   BANK0   BANK1   BANK2   BANK3   BANK4   BANK5   BANK6   BANK7   BANK8   BANK9  BANK10  BANK1
      +1  BANK12
  2469 ;;      Params:         1       0       0       0       0       0       0       0       0       0       0       0       
      +0       0
  2470 ;;      Locals:         2       0       0       0       0       0       0       0       0       0       0       0       
      +0       0
  2471 ;;      Temps:          1       0       0       0       0       0       0       0       0       0       0       0       
      +0       0
  2472 ;;      Totals:         4       0       0       0       0       0       0       0       0       0       0       0       
      +0       0
  2473 ;;Total ram usage:        4 bytes
  2474 ;; Hardware stack levels used:    1
  2475 ;; This function calls:
  2476 ;;		Nothing
  2477 ;; This function is called by:
  2478 ;;		_glcd_str
  2479 ;; This function uses a non-reentrant model
  2480 ;;
  2481                           
  2482                           
  2483                           ;psect for function ___bmul
  2484  04FA                     ___bmul:	
  2485                           
  2486                           ;incstack = 0
  2487                           ; Regs used in ___bmul: [wreg+status,2+status,0]
  2488                           ;___bmul@multiplier stored from wreg
  2489  04FA  00F3               	movwf	___bmul@multiplier
  2490  04FB  01F2               	clrf	___bmul@product
  2491  04FC                     l1186:	
  2492  04FC  1C73               	btfss	___bmul@multiplier,0
  2493  04FD  2D02               	goto	l1190
  2494  04FE  0870               	movf	___bmul@multiplicand,w
  2495  04FF  00F1               	movwf	??___bmul
  2496  0500  0871               	movf	??___bmul,w
  2497  0501  07F2               	addwf	___bmul@product,f
  2498  0502                     l1190:	
  2499  0502  1003               	clrc
  2500  0503  0DF0               	rlf	___bmul@multiplicand,f
  2501  0504  1003               	clrc
  2502  0505  0CF3               	rrf	___bmul@multiplier,f
  2503  0506  0873               	movf	___bmul@multiplier,w
  2504  0507  1D03               	btfss	3,2
  2505  0508  2CFC               	goto	l1186
  2506  0509  0872               	movf	___bmul@product,w
  2507  050A  0008               	return
  2508  050B                     __end_of___bmul:	
  2509                           
  2510                           	psect	text6
  2511  055F                     __ptext6:	
  2512 ;; *************** function _glcd_init *****************
  2513 ;; Defined at:
  2514 ;;		line 13 in file "C:\Users\yuya\Desktop\ROBOCON\pic program\PIC_16F1939\glcd\glcd.c"
  2515 ;; Parameters:    Size  Location     Type
  2516 ;;		None
  2517 ;; Auto vars:     Size  Location     Type
  2518 ;;		None
  2519 ;; Return value:  Size  Location     Type
  2520 ;;                  1    wreg      void 
  2521 ;; Registers used:
  2522 ;;		wreg, status,2, status,0, pclath, cstack
  2523 ;; Tracked objects:
  2524 ;;		On entry : 0/0
  2525 ;;		On exit  : 0/0
  2526 ;;		Unchanged: 0/0
  2527 ;; Data sizes:     COMMON   BANK0   BANK1   BANK2   BANK3   BANK4   BANK5   BANK6   BANK7   BANK8   BANK9  BANK10  BANK1
      +1  BANK12
  2528 ;;      Params:         0       0       0       0       0       0       0       0       0       0       0       0       
      +0       0
  2529 ;;      Locals:         0       0       0       0       0       0       0       0       0       0       0       0       
      +0       0
  2530 ;;      Temps:          2       0       0       0       0       0       0       0       0       0       0       0       
      +0       0
  2531 ;;      Totals:         2       0       0       0       0       0       0       0       0       0       0       0       
      +0       0
  2532 ;;Total ram usage:        2 bytes
  2533 ;; Hardware stack levels used:    1
  2534 ;; Hardware stack levels required when called:    2
  2535 ;; This function calls:
  2536 ;;		_glcd_writelcd
  2537 ;; This function is called by:
  2538 ;;		_main
  2539 ;; This function uses a non-reentrant model
  2540 ;;
  2541                           
  2542                           
  2543                           ;psect for function _glcd_init
  2544  055F                     _glcd_init:	
  2545                           
  2546                           ;glcd.c: 14: RD6 = 0 ;
  2547                           
  2548                           ;incstack = 0
  2549                           ; Regs used in _glcd_init: [wreg+status,2+status,0+pclath+cstack]
  2550  055F  0020               	movlb	0	; select bank0
  2551  0560  130F               	bcf	15,6	;volatile
  2552                           
  2553                           ;glcd.c: 15: _delay((unsigned long)((10)*(8000000/4000000.0))) ;
  2554  0561  3006               	movlw	6
  2555  0562  00F4               	movwf	??_glcd_init
  2556  0563                     u1577:	
  2557  0563  0BF4               	decfsz	??_glcd_init,f
  2558  0564  2D63               	goto	u1577
  2559  0565  0000               	nop
  2560                           
  2561                           ;glcd.c: 16: RD6 = 1 ;
  2562  0566  0020               	movlb	0	; select bank0
  2563  0567  170F               	bsf	15,6	;volatile
  2564                           
  2565                           ;glcd.c: 17: _delay((unsigned long)((1000)*(8000000/4000000.0))) ;
  2566  0568  3003               	movlw	3
  2567  0569  00F5               	movwf	??_glcd_init+1
  2568  056A  3097               	movlw	151
  2569  056B  00F4               	movwf	??_glcd_init
  2570  056C                     u1587:	
  2571  056C  0BF4               	decfsz	??_glcd_init,f
  2572  056D  2D6C               	goto	u1587
  2573  056E  0BF5               	decfsz	??_glcd_init+1,f
  2574  056F  2D6C               	goto	u1587
  2575  0570  3200               	nop2
  2576                           
  2577                           ;glcd.c: 19: glcd_writelcd(0x3F,1) ;
  2578  0571  01F1               	clrf	glcd_writelcd@cselect
  2579  0572  0AF1               	incf	glcd_writelcd@cselect,f
  2580  0573  303F               	movlw	63
  2581  0574  3186  264F  3185   	fcall	_glcd_writelcd
  2582                           
  2583                           ;glcd.c: 20: glcd_writelcd(0x3F,2) ;
  2584  0577  3002               	movlw	2
  2585  0578  00F4               	movwf	??_glcd_init
  2586  0579  0874               	movf	??_glcd_init,w
  2587  057A  00F1               	movwf	glcd_writelcd@cselect
  2588  057B  303F               	movlw	63
  2589  057C  3186  264F  3185   	fcall	_glcd_writelcd
  2590                           
  2591                           ;glcd.c: 21: glcd_writelcd(0b11000000,1) ;
  2592  057F  01F1               	clrf	glcd_writelcd@cselect
  2593  0580  0AF1               	incf	glcd_writelcd@cselect,f
  2594  0581  30C0               	movlw	192
  2595  0582  3186  264F  3185   	fcall	_glcd_writelcd
  2596                           
  2597                           ;glcd.c: 22: glcd_writelcd(0b11000000,2) ;
  2598  0585  3002               	movlw	2
  2599  0586  00F4               	movwf	??_glcd_init
  2600  0587  0874               	movf	??_glcd_init,w
  2601  0588  00F1               	movwf	glcd_writelcd@cselect
  2602  0589  30C0               	movlw	192
  2603  058A  3186  264F         	fcall	_glcd_writelcd
  2604  058C  0008               	return
  2605  058D                     __end_of_glcd_init:	
  2606                           
  2607                           	psect	text7
  2608  0603                     __ptext7:	
  2609 ;; *************** function _glcd_clear *****************
  2610 ;; Defined at:
  2611 ;;		line 119 in file "C:\Users\yuya\Desktop\ROBOCON\pic program\PIC_16F1939\glcd\glcd.c"
  2612 ;; Parameters:    Size  Location     Type
  2613 ;;		None
  2614 ;; Auto vars:     Size  Location     Type
  2615 ;;  m               2    2[BANK0 ] int 
  2616 ;;  l               2    0[BANK0 ] int 
  2617 ;; Return value:  Size  Location     Type
  2618 ;;                  1    wreg      void 
  2619 ;; Registers used:
  2620 ;;		wreg, status,2, status,0, pclath, cstack
  2621 ;; Tracked objects:
  2622 ;;		On entry : 0/0
  2623 ;;		On exit  : 0/0
  2624 ;;		Unchanged: 0/0
  2625 ;; Data sizes:     COMMON   BANK0   BANK1   BANK2   BANK3   BANK4   BANK5   BANK6   BANK7   BANK8   BANK9  BANK10  BANK1
      +1  BANK12
  2626 ;;      Params:         0       0       0       0       0       0       0       0       0       0       0       0       
      +0       0
  2627 ;;      Locals:         0       4       0       0       0       0       0       0       0       0       0       0       
      +0       0
  2628 ;;      Temps:          2       0       0       0       0       0       0       0       0       0       0       0       
      +0       0
  2629 ;;      Totals:         2       4       0       0       0       0       0       0       0       0       0       0       
      +0       0
  2630 ;;Total ram usage:        6 bytes
  2631 ;; Hardware stack levels used:    1
  2632 ;; Hardware stack levels required when called:    3
  2633 ;; This function calls:
  2634 ;;		_glcd_writelcd
  2635 ;;		_glcd_writelcdd
  2636 ;; This function is called by:
  2637 ;;		_main
  2638 ;; This function uses a non-reentrant model
  2639 ;;
  2640                           
  2641                           
  2642                           ;psect for function _glcd_clear
  2643  0603                     _glcd_clear:	
  2644                           
  2645                           ;glcd.c: 120: glcd_writelcd(0b11000000,1) ;
  2646                           
  2647                           ;incstack = 0
  2648                           ; Regs used in _glcd_clear: [wreg+status,2+status,0+pclath+cstack]
  2649  0603  01F1               	clrf	glcd_writelcd@cselect
  2650  0604  0AF1               	incf	glcd_writelcd@cselect,f
  2651  0605  30C0               	movlw	192
  2652  0606  3186  264F  3186   	fcall	_glcd_writelcd
  2653                           
  2654                           ;glcd.c: 121: glcd_writelcd(0b11000000,2) ;
  2655  0609  3002               	movlw	2
  2656  060A  00FB               	movwf	??_glcd_clear
  2657  060B  087B               	movf	??_glcd_clear,w
  2658  060C  00F1               	movwf	glcd_writelcd@cselect
  2659  060D  30C0               	movlw	192
  2660  060E  3186  264F  3186   	fcall	_glcd_writelcd
  2661                           
  2662                           ;glcd.c: 122: int l , m ;
  2663                           ;glcd.c: 125: for(l=0;l<8;l++){
  2664  0611  0020               	movlb	0	; select bank0
  2665  0612  01A0               	clrf	glcd_clear@l
  2666  0613  01A1               	clrf	glcd_clear@l+1
  2667  0614                     L2:	
  2668  0614  0821               	movf	glcd_clear@l+1,w
  2669  0615  3A80               	xorlw	128
  2670  0616  00FB               	movwf	??_glcd_clear
  2671  0617  3080               	movlw	128
  2672  0618  027B               	subwf	??_glcd_clear,w
  2673  0619  3008               	movlw	8
  2674  061A  1903               	btfsc	3,2
  2675  061B  0220               	subwf	glcd_clear@l,w
  2676  061C  1803               	btfsc	3,0
  2677  061D  0008               	return
  2678                           
  2679                           ;glcd.c: 126: for(m=0;m<128;m++){
  2680  061E  0020               	movlb	0	; select bank0
  2681  061F  01A2               	clrf	glcd_clear@m
  2682  0620  01A3               	clrf	glcd_clear@m+1
  2683  0621  0823               	movf	glcd_clear@m+1,w
  2684  0622  3A80               	xorlw	128
  2685  0623  00FB               	movwf	??_glcd_clear
  2686  0624  3080               	movlw	128
  2687  0625  027B               	subwf	??_glcd_clear,w
  2688  0626  1D03               	skipz
  2689  0627  2E2A               	goto	u1425
  2690  0628  3080               	movlw	128
  2691  0629  0222               	subwf	glcd_clear@m,w
  2692  062A                     u1425:	
  2693  062A  1803               	btfsc	3,0
  2694  062B  2E49               	goto	l1234
  2695  062C                     l1228:	
  2696                           
  2697                           ;glcd.c: 127: glcd_writelcdd(0,m,l) ;
  2698  062C  0020               	movlb	0	; select bank0
  2699  062D  0822               	movf	glcd_clear@m,w
  2700  062E  00FB               	movwf	??_glcd_clear
  2701  062F  087B               	movf	??_glcd_clear,w
  2702  0630  00F6               	movwf	glcd_writelcdd@c
  2703  0631  0820               	movf	glcd_clear@l,w
  2704  0632  00FC               	movwf	??_glcd_clear+1
  2705  0633  087C               	movf	??_glcd_clear+1,w
  2706  0634  00F7               	movwf	glcd_writelcdd@page
  2707  0635  3000               	movlw	0
  2708  0636  3187  2757  3186   	fcall	_glcd_writelcdd
  2709  0639  3001               	movlw	1
  2710  063A  0020               	movlb	0	; select bank0
  2711  063B  07A2               	addwf	glcd_clear@m,f
  2712  063C  3000               	movlw	0
  2713  063D  3DA3               	addwfc	glcd_clear@m+1,f
  2714  063E  0823               	movf	glcd_clear@m+1,w
  2715  063F  3A80               	xorlw	128
  2716  0640  00FB               	movwf	??_glcd_clear
  2717  0641  3080               	movlw	128
  2718  0642  027B               	subwf	??_glcd_clear,w
  2719  0643  1D03               	skipz
  2720  0644  2E47               	goto	u1435
  2721  0645  3080               	movlw	128
  2722  0646  0222               	subwf	glcd_clear@m,w
  2723  0647                     u1435:	
  2724  0647  1C03               	skipc
  2725  0648  2E2C               	goto	l1228
  2726  0649                     l1234:	
  2727  0649  3001               	movlw	1
  2728  064A  0020               	movlb	0	; select bank0
  2729  064B  07A0               	addwf	glcd_clear@l,f
  2730  064C  3000               	movlw	0
  2731  064D  3DA1               	addwfc	glcd_clear@l+1,f
  2732  064E  2E14               	goto	L2
  2733  064F                     __end_of_glcd_clear:	
  2734                           
  2735                           	psect	text8
  2736  0757                     __ptext8:	
  2737 ;; *************** function _glcd_writelcdd *****************
  2738 ;; Defined at:
  2739 ;;		line 182 in file "C:\Users\yuya\Desktop\ROBOCON\pic program\PIC_16F1939\glcd\glcd.c"
  2740 ;; Parameters:    Size  Location     Type
  2741 ;;  cmd             1    wreg     unsigned char 
  2742 ;;  c               1    6[COMMON] unsigned char 
  2743 ;;  page            1    7[COMMON] unsigned char 
  2744 ;; Auto vars:     Size  Location     Type
  2745 ;;  cmd             1   10[COMMON] unsigned char 
  2746 ;;  cl              1    9[COMMON] unsigned char 
  2747 ;; Return value:  Size  Location     Type
  2748 ;;                  1    wreg      void 
  2749 ;; Registers used:
  2750 ;;		wreg, status,2, status,0, pclath, cstack
  2751 ;; Tracked objects:
  2752 ;;		On entry : 0/0
  2753 ;;		On exit  : 0/0
  2754 ;;		Unchanged: 0/0
  2755 ;; Data sizes:     COMMON   BANK0   BANK1   BANK2   BANK3   BANK4   BANK5   BANK6   BANK7   BANK8   BANK9  BANK10  BANK1
      +1  BANK12
  2756 ;;      Params:         2       0       0       0       0       0       0       0       0       0       0       0       
      +0       0
  2757 ;;      Locals:         2       0       0       0       0       0       0       0       0       0       0       0       
      +0       0
  2758 ;;      Temps:          1       0       0       0       0       0       0       0       0       0       0       0       
      +0       0
  2759 ;;      Totals:         5       0       0       0       0       0       0       0       0       0       0       0       
      +0       0
  2760 ;;Total ram usage:        5 bytes
  2761 ;; Hardware stack levels used:    1
  2762 ;; Hardware stack levels required when called:    2
  2763 ;; This function calls:
  2764 ;;		_glcd_en
  2765 ;;		_glcd_readbusy
  2766 ;;		_glcd_writelcd
  2767 ;; This function is called by:
  2768 ;;		_glcd_clear
  2769 ;;		_glcd_chr
  2770 ;;		_glcd_writepage
  2771 ;;		_glcd_pixel_write
  2772 ;; This function uses a non-reentrant model
  2773 ;;
  2774                           
  2775                           
  2776                           ;psect for function _glcd_writelcdd
  2777  0757                     _glcd_writelcdd:	
  2778                           
  2779                           ;incstack = 0
  2780                           ; Regs used in _glcd_writelcdd: [wreg+status,2+status,0+pclath+cstack]
  2781                           ;glcd_writelcdd@cmd stored from wreg
  2782  0757  00FA               	movwf	glcd_writelcdd@cmd
  2783                           
  2784                           ;glcd.c: 183: char cl ;
  2785                           ;glcd.c: 184: if(c<64){
  2786  0758  3040               	movlw	64
  2787  0759  0276               	subwf	glcd_writelcdd@c,w
  2788  075A  1803               	skipnc
  2789  075B  2F6A               	goto	l1130
  2790                           
  2791                           ;glcd.c: 185: glcd_writelcd((0x40 | c),2) ;
  2792  075C  3002               	movlw	2
  2793  075D  00F8               	movwf	??_glcd_writelcdd
  2794  075E  0878               	movf	??_glcd_writelcdd,w
  2795  075F  00F1               	movwf	glcd_writelcd@cselect
  2796  0760  0876               	movf	glcd_writelcdd@c,w
  2797  0761  3840               	iorlw	64
  2798  0762  3186  264F  3187   	fcall	_glcd_writelcd
  2799                           
  2800                           ;glcd.c: 186: cl = 2 ;
  2801  0765  3002               	movlw	2
  2802  0766  00F8               	movwf	??_glcd_writelcdd
  2803  0767  0878               	movf	??_glcd_writelcdd,w
  2804  0768  00F9               	movwf	glcd_writelcdd@cl
  2805                           
  2806                           ;glcd.c: 187: } else {
  2807  0769  2F74               	goto	l1134
  2808  076A                     l1130:	
  2809                           
  2810                           ;glcd.c: 188: glcd_writelcd((0x40 | (c-64)) ,1) ;
  2811  076A  01F1               	clrf	glcd_writelcd@cselect
  2812  076B  0AF1               	incf	glcd_writelcd@cselect,f
  2813  076C  0876               	movf	glcd_writelcdd@c,w
  2814  076D  3EC0               	addlw	192
  2815  076E  3840               	iorlw	64
  2816  076F  3186  264F  3187   	fcall	_glcd_writelcd
  2817                           
  2818                           ;glcd.c: 189: cl = 1 ;
  2819  0772  01F9               	clrf	glcd_writelcdd@cl
  2820  0773  0AF9               	incf	glcd_writelcdd@cl,f
  2821  0774                     l1134:	
  2822                           ;glcd.c: 190: }
  2823                           ;glcd.c: 191: while(glcd_readbusy() != 0) ;
  2824                           
  2825  0774  3185  2540  3187   	fcall	_glcd_readbusy
  2826  0777  3A00               	xorlw	0
  2827  0778  1D03               	skipz
  2828  0779  2F74               	goto	l1134
  2829                           
  2830                           ;glcd.c: 192: glcd_writelcd((0xB8 | page),cl) ;
  2831  077A  0879               	movf	glcd_writelcdd@cl,w
  2832  077B  00F8               	movwf	??_glcd_writelcdd
  2833  077C  0878               	movf	??_glcd_writelcdd,w
  2834  077D  00F1               	movwf	glcd_writelcd@cselect
  2835  077E  0877               	movf	glcd_writelcdd@page,w
  2836  077F  38B8               	iorlw	184
  2837  0780  3186  264F  3187   	fcall	_glcd_writelcd
  2838                           
  2839                           ;glcd.c: 193: if(cl == 1){
  2840  0783  0379               	decf	glcd_writelcdd@cl,w
  2841  0784  1D03               	btfss	3,2
  2842  0785  2F89               	goto	l120
  2843                           
  2844                           ;glcd.c: 194: RD4 = 0 ;
  2845  0786  0020               	movlb	0	; select bank0
  2846  0787  120F               	bcf	15,4	;volatile
  2847                           
  2848                           ;glcd.c: 195: } else {
  2849  0788  2F8B               	goto	l121
  2850  0789                     l120:	
  2851                           
  2852                           ;glcd.c: 196: RD5 = 0 ;
  2853  0789  0020               	movlb	0	; select bank0
  2854  078A  128F               	bcf	15,5	;volatile
  2855  078B                     l121:	
  2856                           
  2857                           ;glcd.c: 197: }
  2858                           ;glcd.c: 198: RD1 = 0 ;
  2859  078B  108F               	bcf	15,1	;volatile
  2860                           
  2861                           ;glcd.c: 199: RD0 = 1 ;
  2862  078C  140F               	bsf	15,0	;volatile
  2863                           
  2864                           ;glcd.c: 201: RC0 = cmd & 0x01 ;
  2865  078D  1C7A               	btfss	glcd_writelcdd@cmd,0
  2866  078E  2F92               	goto	u1090
  2867  078F  0020               	movlb	0	; select bank0
  2868  0790  140E               	bsf	14,0	;volatile
  2869  0791  2F94               	goto	l1142
  2870  0792                     u1090:	
  2871  0792  0020               	movlb	0	; select bank0
  2872  0793  100E               	bcf	14,0	;volatile
  2873  0794                     l1142:	
  2874                           
  2875                           ;glcd.c: 202: RC1 = (cmd >> 1) & 0x01 ;
  2876  0794  087A               	movf	glcd_writelcdd@cmd,w
  2877  0795  00F8               	movwf	??_glcd_writelcdd
  2878  0796  3001               	movlw	1
  2879  0797                     u1115:	
  2880  0797  36F8               	lsrf	??_glcd_writelcdd,f
  2881  0798  0B89               	decfsz	9,f
  2882  0799  2F97               	goto	u1115
  2883  079A  1C78               	btfss	??_glcd_writelcdd,0
  2884  079B  2F9F               	goto	u1120
  2885  079C  0020               	movlb	0	; select bank0
  2886  079D  148E               	bsf	14,1	;volatile
  2887  079E  2FA1               	goto	u1134
  2888  079F                     u1120:	
  2889  079F  0020               	movlb	0	; select bank0
  2890  07A0  108E               	bcf	14,1	;volatile
  2891  07A1                     u1134:	
  2892                           
  2893                           ;glcd.c: 203: RC2 = (cmd >> 2) & 0x01 ;
  2894  07A1  087A               	movf	glcd_writelcdd@cmd,w
  2895  07A2  00F8               	movwf	??_glcd_writelcdd
  2896  07A3  3002               	movlw	2
  2897  07A4                     u1145:	
  2898  07A4  36F8               	lsrf	??_glcd_writelcdd,f
  2899  07A5  0B89               	decfsz	9,f
  2900  07A6  2FA4               	goto	u1145
  2901  07A7  1C78               	btfss	??_glcd_writelcdd,0
  2902  07A8  2FAC               	goto	u1150
  2903  07A9  0020               	movlb	0	; select bank0
  2904  07AA  150E               	bsf	14,2	;volatile
  2905  07AB  2FAE               	goto	u1164
  2906  07AC                     u1150:	
  2907  07AC  0020               	movlb	0	; select bank0
  2908  07AD  110E               	bcf	14,2	;volatile
  2909  07AE                     u1164:	
  2910                           
  2911                           ;glcd.c: 204: RB3 = (cmd >> 3) & 0x01 ;
  2912  07AE  087A               	movf	glcd_writelcdd@cmd,w
  2913  07AF  00F8               	movwf	??_glcd_writelcdd
  2914  07B0  3003               	movlw	3
  2915  07B1                     u1175:	
  2916  07B1  36F8               	lsrf	??_glcd_writelcdd,f
  2917  07B2  0B89               	decfsz	9,f
  2918  07B3  2FB1               	goto	u1175
  2919  07B4  1C78               	btfss	??_glcd_writelcdd,0
  2920  07B5  2FB9               	goto	u1180
  2921  07B6  0020               	movlb	0	; select bank0
  2922  07B7  158D               	bsf	13,3	;volatile
  2923  07B8  2FBB               	goto	u1194
  2924  07B9                     u1180:	
  2925  07B9  0020               	movlb	0	; select bank0
  2926  07BA  118D               	bcf	13,3	;volatile
  2927  07BB                     u1194:	
  2928                           
  2929                           ;glcd.c: 205: RB4 = (cmd >> 4) & 0x01 ;
  2930  07BB  087A               	movf	glcd_writelcdd@cmd,w
  2931  07BC  00F8               	movwf	??_glcd_writelcdd
  2932  07BD  3004               	movlw	4
  2933  07BE                     u1205:	
  2934  07BE  36F8               	lsrf	??_glcd_writelcdd,f
  2935  07BF  0B89               	decfsz	9,f
  2936  07C0  2FBE               	goto	u1205
  2937  07C1  1C78               	btfss	??_glcd_writelcdd,0
  2938  07C2  2FC6               	goto	u1210
  2939  07C3  0020               	movlb	0	; select bank0
  2940  07C4  160D               	bsf	13,4	;volatile
  2941  07C5  2FC8               	goto	u1224
  2942  07C6                     u1210:	
  2943  07C6  0020               	movlb	0	; select bank0
  2944  07C7  120D               	bcf	13,4	;volatile
  2945  07C8                     u1224:	
  2946                           
  2947                           ;glcd.c: 206: RC5 = (cmd >> 5) & 0x01 ;
  2948  07C8  087A               	movf	glcd_writelcdd@cmd,w
  2949  07C9  00F8               	movwf	??_glcd_writelcdd
  2950  07CA  3005               	movlw	5
  2951  07CB                     u1235:	
  2952  07CB  36F8               	lsrf	??_glcd_writelcdd,f
  2953  07CC  0B89               	decfsz	9,f
  2954  07CD  2FCB               	goto	u1235
  2955  07CE  1C78               	btfss	??_glcd_writelcdd,0
  2956  07CF  2FD3               	goto	u1240
  2957  07D0  0020               	movlb	0	; select bank0
  2958  07D1  168E               	bsf	14,5	;volatile
  2959  07D2  2FD5               	goto	u1254
  2960  07D3                     u1240:	
  2961  07D3  0020               	movlb	0	; select bank0
  2962  07D4  128E               	bcf	14,5	;volatile
  2963  07D5                     u1254:	
  2964                           
  2965                           ;glcd.c: 207: RC6 = (cmd >> 6) & 0x01 ;
  2966  07D5  087A               	movf	glcd_writelcdd@cmd,w
  2967  07D6  00F8               	movwf	??_glcd_writelcdd
  2968  07D7  3006               	movlw	6
  2969  07D8                     u1265:	
  2970  07D8  36F8               	lsrf	??_glcd_writelcdd,f
  2971  07D9  0B89               	decfsz	9,f
  2972  07DA  2FD8               	goto	u1265
  2973  07DB  1C78               	btfss	??_glcd_writelcdd,0
  2974  07DC  2FE0               	goto	u1270
  2975  07DD  0020               	movlb	0	; select bank0
  2976  07DE  170E               	bsf	14,6	;volatile
  2977  07DF  2FE2               	goto	u1284
  2978  07E0                     u1270:	
  2979  07E0  0020               	movlb	0	; select bank0
  2980  07E1  130E               	bcf	14,6	;volatile
  2981  07E2                     u1284:	
  2982                           
  2983                           ;glcd.c: 208: RC7 = (cmd >> 7) & 0x01 ;
  2984  07E2  087A               	movf	glcd_writelcdd@cmd,w
  2985  07E3  00F8               	movwf	??_glcd_writelcdd
  2986  07E4  3007               	movlw	7
  2987  07E5                     u1295:	
  2988  07E5  36F8               	lsrf	??_glcd_writelcdd,f
  2989  07E6  0B89               	decfsz	9,f
  2990  07E7  2FE5               	goto	u1295
  2991  07E8  1C78               	btfss	??_glcd_writelcdd,0
  2992  07E9  2FED               	goto	u1300
  2993  07EA  0020               	movlb	0	; select bank0
  2994  07EB  178E               	bsf	14,7	;volatile
  2995  07EC  2FEF               	goto	l1144
  2996  07ED                     u1300:	
  2997  07ED  0020               	movlb	0	; select bank0
  2998  07EE  138E               	bcf	14,7	;volatile
  2999  07EF                     l1144:	
  3000                           
  3001                           ;glcd.c: 210: glcd_en() ;
  3002  07EF  3184  24F2         	fcall	_glcd_en
  3003                           
  3004                           ;glcd.c: 212: RD4 = 1 ;
  3005  07F1  0020               	movlb	0	; select bank0
  3006  07F2  160F               	bsf	15,4	;volatile
  3007                           
  3008                           ;glcd.c: 213: RD5 = 1 ;
  3009  07F3  168F               	bsf	15,5	;volatile
  3010                           
  3011                           ;glcd.c: 214: RD1 = 0 ;
  3012  07F4  108F               	bcf	15,1	;volatile
  3013                           
  3014                           ;glcd.c: 215: RD0 = 0 ;
  3015  07F5  100F               	bcf	15,0	;volatile
  3016  07F6  0008               	return
  3017  07F7                     __end_of_glcd_writelcdd:	
  3018                           
  3019                           	psect	text9
  3020  064F                     __ptext9:	
  3021 ;; *************** function _glcd_writelcd *****************
  3022 ;; Defined at:
  3023 ;;		line 26 in file "C:\Users\yuya\Desktop\ROBOCON\pic program\PIC_16F1939\glcd\glcd.c"
  3024 ;; Parameters:    Size  Location     Type
  3025 ;;  cmd             1    wreg     unsigned char 
  3026 ;;  cselect         1    1[COMMON] unsigned char 
  3027 ;; Auto vars:     Size  Location     Type
  3028 ;;  cmd             1    3[COMMON] unsigned char 
  3029 ;; Return value:  Size  Location     Type
  3030 ;;                  1    wreg      void 
  3031 ;; Registers used:
  3032 ;;		wreg, status,2, status,0, pclath, cstack
  3033 ;; Tracked objects:
  3034 ;;		On entry : 0/0
  3035 ;;		On exit  : 0/0
  3036 ;;		Unchanged: 0/0
  3037 ;; Data sizes:     COMMON   BANK0   BANK1   BANK2   BANK3   BANK4   BANK5   BANK6   BANK7   BANK8   BANK9  BANK10  BANK1
      +1  BANK12
  3038 ;;      Params:         1       0       0       0       0       0       0       0       0       0       0       0       
      +0       0
  3039 ;;      Locals:         1       0       0       0       0       0       0       0       0       0       0       0       
      +0       0
  3040 ;;      Temps:          1       0       0       0       0       0       0       0       0       0       0       0       
      +0       0
  3041 ;;      Totals:         3       0       0       0       0       0       0       0       0       0       0       0       
      +0       0
  3042 ;;Total ram usage:        3 bytes
  3043 ;; Hardware stack levels used:    1
  3044 ;; Hardware stack levels required when called:    1
  3045 ;; This function calls:
  3046 ;;		_glcd_en
  3047 ;;		_glcd_readbusy
  3048 ;; This function is called by:
  3049 ;;		_glcd_init
  3050 ;;		_glcd_clear
  3051 ;;		_glcd_writelcdd
  3052 ;;		_glcd_czero
  3053 ;;		_glcd_pageset
  3054 ;;		_glcd_setc
  3055 ;; This function uses a non-reentrant model
  3056 ;;
  3057                           
  3058                           
  3059                           ;psect for function _glcd_writelcd
  3060  064F                     _glcd_writelcd:	
  3061                           
  3062                           ;incstack = 0
  3063                           ; Regs used in _glcd_writelcd: [wreg+status,2+status,0+pclath+cstack]
  3064                           ;glcd_writelcd@cmd stored from wreg
  3065  064F  00F3               	movwf	glcd_writelcd@cmd
  3066  0650                     l1106:	
  3067                           ;glcd.c: 28: while(glcd_readbusy() != 0) ;
  3068                           
  3069  0650  3185  2540  3186   	fcall	_glcd_readbusy
  3070  0653  3A00               	xorlw	0
  3071  0654  1D03               	skipz
  3072  0655  2E50               	goto	l1106
  3073                           
  3074                           ;glcd.c: 29: if(cselect == 1){
  3075  0656  0371               	decf	glcd_writelcd@cselect,w
  3076  0657  1D03               	btfss	3,2
  3077  0658  2E5D               	goto	l59
  3078                           
  3079                           ;glcd.c: 30: RD4 = 0 ;
  3080  0659  0020               	movlb	0	; select bank0
  3081  065A  120F               	bcf	15,4	;volatile
  3082                           
  3083                           ;glcd.c: 31: RD5 = 1 ;
  3084  065B  168F               	bsf	15,5	;volatile
  3085                           
  3086                           ;glcd.c: 32: } else {
  3087  065C  2E60               	goto	l60
  3088  065D                     l59:	
  3089                           
  3090                           ;glcd.c: 33: RD5 = 0 ;
  3091  065D  0020               	movlb	0	; select bank0
  3092  065E  128F               	bcf	15,5	;volatile
  3093                           
  3094                           ;glcd.c: 34: RD4 = 1;
  3095  065F  160F               	bsf	15,4	;volatile
  3096  0660                     l60:	
  3097                           
  3098                           ;glcd.c: 35: }
  3099                           ;glcd.c: 37: RD1 = 0 ;
  3100  0660  108F               	bcf	15,1	;volatile
  3101                           
  3102                           ;glcd.c: 38: RD0 = 0 ;
  3103  0661  100F               	bcf	15,0	;volatile
  3104                           
  3105                           ;glcd.c: 40: RC0 = cmd & 0x01 ;
  3106  0662  1C73               	btfss	glcd_writelcd@cmd,0
  3107  0663  2E67               	goto	u830
  3108  0664  0020               	movlb	0	; select bank0
  3109  0665  140E               	bsf	14,0	;volatile
  3110  0666  2E69               	goto	l1112
  3111  0667                     u830:	
  3112  0667  0020               	movlb	0	; select bank0
  3113  0668  100E               	bcf	14,0	;volatile
  3114  0669                     l1112:	
  3115                           
  3116                           ;glcd.c: 41: RC1 = (cmd >> 1) & 0x01 ;
  3117  0669  0873               	movf	glcd_writelcd@cmd,w
  3118  066A  00F2               	movwf	??_glcd_writelcd
  3119  066B  3001               	movlw	1
  3120  066C                     u855:	
  3121  066C  36F2               	lsrf	??_glcd_writelcd,f
  3122  066D  0B89               	decfsz	9,f
  3123  066E  2E6C               	goto	u855
  3124  066F  1C72               	btfss	??_glcd_writelcd,0
  3125  0670  2E74               	goto	u860
  3126  0671  0020               	movlb	0	; select bank0
  3127  0672  148E               	bsf	14,1	;volatile
  3128  0673  2E76               	goto	u874
  3129  0674                     u860:	
  3130  0674  0020               	movlb	0	; select bank0
  3131  0675  108E               	bcf	14,1	;volatile
  3132  0676                     u874:	
  3133                           
  3134                           ;glcd.c: 42: RC2 = (cmd >> 2) & 0x01 ;
  3135  0676  0873               	movf	glcd_writelcd@cmd,w
  3136  0677  00F2               	movwf	??_glcd_writelcd
  3137  0678  3002               	movlw	2
  3138  0679                     u885:	
  3139  0679  36F2               	lsrf	??_glcd_writelcd,f
  3140  067A  0B89               	decfsz	9,f
  3141  067B  2E79               	goto	u885
  3142  067C  1C72               	btfss	??_glcd_writelcd,0
  3143  067D  2E81               	goto	u890
  3144  067E  0020               	movlb	0	; select bank0
  3145  067F  150E               	bsf	14,2	;volatile
  3146  0680  2E83               	goto	u904
  3147  0681                     u890:	
  3148  0681  0020               	movlb	0	; select bank0
  3149  0682  110E               	bcf	14,2	;volatile
  3150  0683                     u904:	
  3151                           
  3152                           ;glcd.c: 43: RB3 = (cmd >> 3) & 0x01 ;
  3153  0683  0873               	movf	glcd_writelcd@cmd,w
  3154  0684  00F2               	movwf	??_glcd_writelcd
  3155  0685  3003               	movlw	3
  3156  0686                     u915:	
  3157  0686  36F2               	lsrf	??_glcd_writelcd,f
  3158  0687  0B89               	decfsz	9,f
  3159  0688  2E86               	goto	u915
  3160  0689  1C72               	btfss	??_glcd_writelcd,0
  3161  068A  2E8E               	goto	u920
  3162  068B  0020               	movlb	0	; select bank0
  3163  068C  158D               	bsf	13,3	;volatile
  3164  068D  2E90               	goto	u934
  3165  068E                     u920:	
  3166  068E  0020               	movlb	0	; select bank0
  3167  068F  118D               	bcf	13,3	;volatile
  3168  0690                     u934:	
  3169                           
  3170                           ;glcd.c: 44: RB4 = (cmd >> 4) & 0x01 ;
  3171  0690  0873               	movf	glcd_writelcd@cmd,w
  3172  0691  00F2               	movwf	??_glcd_writelcd
  3173  0692  3004               	movlw	4
  3174  0693                     u945:	
  3175  0693  36F2               	lsrf	??_glcd_writelcd,f
  3176  0694  0B89               	decfsz	9,f
  3177  0695  2E93               	goto	u945
  3178  0696  1C72               	btfss	??_glcd_writelcd,0
  3179  0697  2E9B               	goto	u950
  3180  0698  0020               	movlb	0	; select bank0
  3181  0699  160D               	bsf	13,4	;volatile
  3182  069A  2E9D               	goto	u964
  3183  069B                     u950:	
  3184  069B  0020               	movlb	0	; select bank0
  3185  069C  120D               	bcf	13,4	;volatile
  3186  069D                     u964:	
  3187                           
  3188                           ;glcd.c: 45: RC5 = (cmd >> 5) & 0x01 ;
  3189  069D  0873               	movf	glcd_writelcd@cmd,w
  3190  069E  00F2               	movwf	??_glcd_writelcd
  3191  069F  3005               	movlw	5
  3192  06A0                     u975:	
  3193  06A0  36F2               	lsrf	??_glcd_writelcd,f
  3194  06A1  0B89               	decfsz	9,f
  3195  06A2  2EA0               	goto	u975
  3196  06A3  1C72               	btfss	??_glcd_writelcd,0
  3197  06A4  2EA8               	goto	u980
  3198  06A5  0020               	movlb	0	; select bank0
  3199  06A6  168E               	bsf	14,5	;volatile
  3200  06A7  2EAA               	goto	u994
  3201  06A8                     u980:	
  3202  06A8  0020               	movlb	0	; select bank0
  3203  06A9  128E               	bcf	14,5	;volatile
  3204  06AA                     u994:	
  3205                           
  3206                           ;glcd.c: 46: RC6 = (cmd >> 6) & 0x01 ;
  3207  06AA  0873               	movf	glcd_writelcd@cmd,w
  3208  06AB  00F2               	movwf	??_glcd_writelcd
  3209  06AC  3006               	movlw	6
  3210  06AD                     u1005:	
  3211  06AD  36F2               	lsrf	??_glcd_writelcd,f
  3212  06AE  0B89               	decfsz	9,f
  3213  06AF  2EAD               	goto	u1005
  3214  06B0  1C72               	btfss	??_glcd_writelcd,0
  3215  06B1  2EB5               	goto	u1010
  3216  06B2  0020               	movlb	0	; select bank0
  3217  06B3  170E               	bsf	14,6	;volatile
  3218  06B4  2EB7               	goto	u1024
  3219  06B5                     u1010:	
  3220  06B5  0020               	movlb	0	; select bank0
  3221  06B6  130E               	bcf	14,6	;volatile
  3222  06B7                     u1024:	
  3223                           
  3224                           ;glcd.c: 47: RC7 = (cmd >> 7) & 0x01 ;
  3225  06B7  0873               	movf	glcd_writelcd@cmd,w
  3226  06B8  00F2               	movwf	??_glcd_writelcd
  3227  06B9  3007               	movlw	7
  3228  06BA                     u1035:	
  3229  06BA  36F2               	lsrf	??_glcd_writelcd,f
  3230  06BB  0B89               	decfsz	9,f
  3231  06BC  2EBA               	goto	u1035
  3232  06BD  1C72               	btfss	??_glcd_writelcd,0
  3233  06BE  2EC2               	goto	u1040
  3234  06BF  0020               	movlb	0	; select bank0
  3235  06C0  178E               	bsf	14,7	;volatile
  3236  06C1  2EC4               	goto	l1114
  3237  06C2                     u1040:	
  3238  06C2  0020               	movlb	0	; select bank0
  3239  06C3  138E               	bcf	14,7	;volatile
  3240  06C4                     l1114:	
  3241                           
  3242                           ;glcd.c: 49: glcd_en() ;
  3243  06C4  3184  24F2         	fcall	_glcd_en
  3244                           
  3245                           ;glcd.c: 51: RD4 = 1 ;
  3246  06C6  0020               	movlb	0	; select bank0
  3247  06C7  160F               	bsf	15,4	;volatile
  3248                           
  3249                           ;glcd.c: 52: RD5 = 1 ;
  3250  06C8  168F               	bsf	15,5	;volatile
  3251                           
  3252                           ;glcd.c: 53: RD1 = 0 ;
  3253  06C9  108F               	bcf	15,1	;volatile
  3254                           
  3255                           ;glcd.c: 54: RD0 = 0 ;
  3256  06CA  100F               	bcf	15,0	;volatile
  3257  06CB  0008               	return
  3258  06CC                     __end_of_glcd_writelcd:	
  3259                           
  3260                           	psect	text10
  3261  0540                     __ptext10:	
  3262 ;; *************** function _glcd_readbusy *****************
  3263 ;; Defined at:
  3264 ;;		line 59 in file "C:\Users\yuya\Desktop\ROBOCON\pic program\PIC_16F1939\glcd\glcd.c"
  3265 ;; Parameters:    Size  Location     Type
  3266 ;;		None
  3267 ;; Auto vars:     Size  Location     Type
  3268 ;;  i               1    0[COMMON] unsigned char 
  3269 ;; Return value:  Size  Location     Type
  3270 ;;                  1    wreg      unsigned char 
  3271 ;; Registers used:
  3272 ;;		wreg, status,2
  3273 ;; Tracked objects:
  3274 ;;		On entry : 0/0
  3275 ;;		On exit  : 0/0
  3276 ;;		Unchanged: 0/0
  3277 ;; Data sizes:     COMMON   BANK0   BANK1   BANK2   BANK3   BANK4   BANK5   BANK6   BANK7   BANK8   BANK9  BANK10  BANK1
      +1  BANK12
  3278 ;;      Params:         0       0       0       0       0       0       0       0       0       0       0       0       
      +0       0
  3279 ;;      Locals:         1       0       0       0       0       0       0       0       0       0       0       0       
      +0       0
  3280 ;;      Temps:          0       0       0       0       0       0       0       0       0       0       0       0       
      +0       0
  3281 ;;      Totals:         1       0       0       0       0       0       0       0       0       0       0       0       
      +0       0
  3282 ;;Total ram usage:        1 bytes
  3283 ;; Hardware stack levels used:    1
  3284 ;; This function calls:
  3285 ;;		Nothing
  3286 ;; This function is called by:
  3287 ;;		_glcd_writelcd
  3288 ;;		_glcd_writelcdd
  3289 ;; This function uses a non-reentrant model
  3290 ;;
  3291                           
  3292                           
  3293                           ;psect for function _glcd_readbusy
  3294  0540                     _glcd_readbusy:	
  3295                           
  3296                           ;glcd.c: 60: RC7 = 0 ;
  3297                           
  3298                           ;incstack = 0
  3299                           ; Regs used in _glcd_readbusy: [wreg+status,2]
  3300  0540  0020               	movlb	0	; select bank0
  3301  0541  138E               	bcf	14,7	;volatile
  3302                           
  3303                           ;glcd.c: 61: char i ;
  3304                           ;glcd.c: 62: TRISCbits.TRISC7 = 1 ;
  3305  0542  0021               	movlb	1	; select bank1
  3306  0543  178E               	bsf	14,7	;volatile
  3307                           
  3308                           ;glcd.c: 63: RD4 = 0 ;
  3309  0544  0020               	movlb	0	; select bank0
  3310  0545  120F               	bcf	15,4	;volatile
  3311                           
  3312                           ;glcd.c: 64: RD5 = 0 ;
  3313  0546  128F               	bcf	15,5	;volatile
  3314                           
  3315                           ;glcd.c: 65: RD1 = 1 ;
  3316  0547  148F               	bsf	15,1	;volatile
  3317                           
  3318                           ;glcd.c: 66: RD0 = 1 ;
  3319  0548  140F               	bsf	15,0	;volatile
  3320                           
  3321                           ;glcd.c: 67: RD4 = 0 ;
  3322  0549  120F               	bcf	15,4	;volatile
  3323                           
  3324                           ;glcd.c: 68: _delay((unsigned long)((1)*(8000000/4000000.0))) ;
  3325  054A  3200               	nop2	;2 cycle nop
  3326                           
  3327                           ;glcd.c: 69: RD2 = 1 ;
  3328  054B  0020               	movlb	0	; select bank0
  3329  054C  150F               	bsf	15,2	;volatile
  3330                           
  3331                           ;glcd.c: 70: _delay((unsigned long)((1)*(8000000/4000000.0))) ;
  3332  054D  3200               	nop2	;2 cycle nop
  3333                           
  3334                           ;glcd.c: 71: RD2 = 0 ;
  3335  054E  0020               	movlb	0	; select bank0
  3336  054F  110F               	bcf	15,2	;volatile
  3337                           
  3338                           ;glcd.c: 72: _delay((unsigned long)((3)*(8000000/4000000.0))) ;
  3339  0550  3200               	nop2	;2 cycle nop
  3340  0551  3200               	nop2	;2 cycle nop
  3341  0552  3200               	nop2	;2 cycle nop
  3342                           
  3343                           ;glcd.c: 73: i = RC7 ;
  3344  0553  3000               	movlw	0
  3345  0554  0020               	movlb	0	; select bank0
  3346  0555  1B8E               	btfsc	14,7	;volatile
  3347  0556  3001               	movlw	1
  3348  0557  00F0               	movwf	glcd_readbusy@i
  3349                           
  3350                           ;glcd.c: 75: RD4 = 1 ;
  3351  0558  160F               	bsf	15,4	;volatile
  3352                           
  3353                           ;glcd.c: 76: RD5 = 1 ;
  3354  0559  168F               	bsf	15,5	;volatile
  3355                           
  3356                           ;glcd.c: 77: RD1 = 0 ;
  3357  055A  108F               	bcf	15,1	;volatile
  3358                           
  3359                           ;glcd.c: 78: TRISCbits.TRISC7= 0 ;
  3360  055B  0021               	movlb	1	; select bank1
  3361  055C  138E               	bcf	14,7	;volatile
  3362                           
  3363                           ;glcd.c: 79: return i ;
  3364  055D  0870               	movf	glcd_readbusy@i,w
  3365  055E  0008               	return
  3366  055F                     __end_of_glcd_readbusy:	
  3367                           
  3368                           	psect	text11
  3369  04F2                     __ptext11:	
  3370 ;; *************** function _glcd_en *****************
  3371 ;; Defined at:
  3372 ;;		line 113 in file "C:\Users\yuya\Desktop\ROBOCON\pic program\PIC_16F1939\glcd\glcd.c"
  3373 ;; Parameters:    Size  Location     Type
  3374 ;;		None
  3375 ;; Auto vars:     Size  Location     Type
  3376 ;;		None
  3377 ;; Return value:  Size  Location     Type
  3378 ;;                  1    wreg      void 
  3379 ;; Registers used:
  3380 ;;		None
  3381 ;; Tracked objects:
  3382 ;;		On entry : 0/0
  3383 ;;		On exit  : 0/0
  3384 ;;		Unchanged: 0/0
  3385 ;; Data sizes:     COMMON   BANK0   BANK1   BANK2   BANK3   BANK4   BANK5   BANK6   BANK7   BANK8   BANK9  BANK10  BANK1
      +1  BANK12
  3386 ;;      Params:         0       0       0       0       0       0       0       0       0       0       0       0       
      +0       0
  3387 ;;      Locals:         0       0       0       0       0       0       0       0       0       0       0       0       
      +0       0
  3388 ;;      Temps:          0       0       0       0       0       0       0       0       0       0       0       0       
      +0       0
  3389 ;;      Totals:         0       0       0       0       0       0       0       0       0       0       0       0       
      +0       0
  3390 ;;Total ram usage:        0 bytes
  3391 ;; Hardware stack levels used:    1
  3392 ;; This function calls:
  3393 ;;		Nothing
  3394 ;; This function is called by:
  3395 ;;		_glcd_writelcd
  3396 ;;		_glcd_writelcdd
  3397 ;; This function uses a non-reentrant model
  3398 ;;
  3399                           
  3400                           
  3401                           ;psect for function _glcd_en
  3402  04F2                     _glcd_en:	
  3403                           
  3404                           ;glcd.c: 114: RD2 = 1 ;
  3405                           
  3406                           ;incstack = 0
  3407                           ; Regs used in _glcd_en: []
  3408  04F2  0020               	movlb	0	; select bank0
  3409  04F3  150F               	bsf	15,2	;volatile
  3410                           
  3411                           ;glcd.c: 115: _delay((unsigned long)((3)*(8000000/4000000.0))) ;
  3412  04F4  3200               	nop2	;2 cycle nop
  3413  04F5  3200               	nop2	;2 cycle nop
  3414  04F6  3200               	nop2	;2 cycle nop
  3415                           
  3416                           ;glcd.c: 116: RD2 = 0 ;
  3417  04F7  0020               	movlb	0	; select bank0
  3418  04F8  110F               	bcf	15,2	;volatile
  3419  04F9  0008               	return
  3420  04FA                     __end_of_glcd_en:	
  3421  007E                     btemp	set	126	;btemp
  3422  007E                     wtemp	set	126
  3423  007E                     wtemp0	set	126
  3424  0080                     wtemp1	set	128
  3425  0082                     wtemp2	set	130
  3426  0084                     wtemp3	set	132
  3427  0086                     wtemp4	set	134
  3428  0088                     wtemp5	set	136
  3429  007F                     wtemp6	set	127
  3430  007E                     ttemp	set	126
  3431  007E                     ttemp0	set	126
  3432  0081                     ttemp1	set	129
  3433  0084                     ttemp2	set	132
  3434  0087                     ttemp3	set	135
  3435  007F                     ttemp4	set	127
  3436  007E                     ltemp	set	126
  3437  007E                     ltemp0	set	126
  3438  0082                     ltemp1	set	130
  3439  0086                     ltemp2	set	134
  3440  0080                     ltemp3	set	128


Data Sizes:
    Strings     82
    Constant    960
    Data        0
    BSS         6
    Persistent  0
    Stack       0

Auto Spaces:
    Space          Size  Autos    Used
    COMMON           14     13      13
    BANK0            80     20      26
    BANK1            80      0       0
    BANK2            80      0       0
    BANK3            80      0       0
    BANK4            80      0       0
    BANK5            80      0       0
    BANK6            80      0       0
    BANK7            80      0       0
    BANK8            80      0       0
    BANK9            80      0       0
    BANK10           80      0       0
    BANK11           80      0       0
    BANK12           48      0       0

Pointer List with Targets:

    glcd_str@str	PTR unsigned char  size(2) Largest target is 18
		 -> STR_6(CODE[14]), STR_5(CODE[18]), STR_4(CODE[2]), STR_3(CODE[18]), 
		 -> STR_2(CODE[14]), STR_1(CODE[16]), 


Critical Paths under _main in COMMON

    _main->_glcd_clear
    _glcd_str->_glcd_chr
    _glcd_chr->_glcd_writelcdd
    _glcd_init->_glcd_writelcd
    _glcd_clear->_glcd_writelcdd
    _glcd_writelcdd->___wmul
    _glcd_writelcd->_glcd_readbusy

Critical Paths under _main in BANK0

    _main->_glcd_str
    _glcd_str->_glcd_chr

Critical Paths under _main in BANK1

    None.

Critical Paths under _main in BANK2

    None.

Critical Paths under _main in BANK3

    None.

Critical Paths under _main in BANK4

    None.

Critical Paths under _main in BANK5

    None.

Critical Paths under _main in BANK6

    None.

Critical Paths under _main in BANK7

    None.

Critical Paths under _main in BANK8

    None.

Critical Paths under _main in BANK9

    None.

Critical Paths under _main in BANK10

    None.

Critical Paths under _main in BANK11

    None.

Critical Paths under _main in BANK12

    None.

Call Graph Tables:

 ---------------------------------------------------------------------------------
 (Depth) Function   	        Calls       Base Space   Used Autos Params    Refs
 ---------------------------------------------------------------------------------
 (0) _main                                                 7     7      0    8051
                                             18 BANK0      2     2      0
                           _delay_ms
                         _glcd_clear
                          _glcd_init
                           _glcd_str
 ---------------------------------------------------------------------------------
 (1) _glcd_str                                             9     5      4    3799
                                              9 BANK0      9     5      4
                             ___bmul
                           _delay_ms
                           _glcd_chr
 ---------------------------------------------------------------------------------
 (2) _glcd_chr                                            11     9      2    2339
                                             11 COMMON     2     0      2
                                              0 BANK0      9     9      0
                             ___bmul (ARG)
                             ___wmul
                     _glcd_writelcdd
 ---------------------------------------------------------------------------------
 (3) ___wmul                                               6     2      4     198
                                              0 COMMON     6     2      4
 ---------------------------------------------------------------------------------
 (2) _delay_ms                                             6     4      2     205
                                              0 COMMON     6     4      2
 ---------------------------------------------------------------------------------
 (2) ___bmul                                               4     3      1     145
                                              0 COMMON     4     3      1
 ---------------------------------------------------------------------------------
 (1) _glcd_init                                            2     2      0    1016
                                              4 COMMON     2     2      0
                      _glcd_writelcd
 ---------------------------------------------------------------------------------
 (1) _glcd_clear                                           6     6      0    3031
                                             11 COMMON     2     2      0
                                              0 BANK0      4     4      0
                      _glcd_writelcd
                     _glcd_writelcdd
 ---------------------------------------------------------------------------------
 (3) _glcd_writelcdd                                       5     3      2    1879
                                              6 COMMON     5     3      2
                             ___wmul (ARG)
                            _glcd_en
                      _glcd_readbusy
                      _glcd_writelcd
 ---------------------------------------------------------------------------------
 (4) _glcd_writelcd                                        3     2      1    1016
                                              1 COMMON     3     2      1
                            _glcd_en
                      _glcd_readbusy
 ---------------------------------------------------------------------------------
 (5) _glcd_readbusy                                        1     1      0      23
                                              0 COMMON     1     1      0
 ---------------------------------------------------------------------------------
 (5) _glcd_en                                              0     0      0       0
 ---------------------------------------------------------------------------------
 Estimated maximum stack depth 5
 ---------------------------------------------------------------------------------

 Call Graph Graphs:

 _main (ROOT)
   _delay_ms
   _glcd_clear
     _glcd_writelcd
       _glcd_en
       _glcd_readbusy
     _glcd_writelcdd
       ___wmul (ARG)
       _glcd_en (ARG)
       _glcd_readbusy (ARG)
       _glcd_writelcd (ARG)
         _glcd_en
         _glcd_readbusy
   _glcd_init
     _glcd_writelcd
       _glcd_en
       _glcd_readbusy
   _glcd_str
     ___bmul
     _delay_ms
     _glcd_chr
       ___bmul (ARG)
       ___wmul (ARG)
       _glcd_writelcdd (ARG)
         ___wmul (ARG)
         _glcd_en (ARG)
         _glcd_readbusy (ARG)
         _glcd_writelcd (ARG)
           _glcd_en
           _glcd_readbusy

 Address spaces:
Name               Size   Autos  Total    Cost      Usage
BIGRAM             3F0      0       0       0        0.0%
EEDATA             100      0       0       0        0.0%
NULL                 0      0       0       0        0.0%
CODE                 0      0       0       0        0.0%
BITCOMMON            E      0       0       1        0.0%
BITSFR0              0      0       0       1        0.0%
SFR0                 0      0       0       1        0.0%
COMMON               E      D       D       2       92.9%
BITSFR1              0      0       0       2        0.0%
SFR1                 0      0       0       2        0.0%
BITSFR2              0      0       0       3        0.0%
SFR2                 0      0       0       3        0.0%
STACK                0      0       0       3        0.0%
BITBANK0            50      0       0       4        0.0%
BITSFR3              0      0       0       4        0.0%
SFR3                 0      0       0       4        0.0%
BANK0               50     14      1A       5       32.5%
BITSFR4              0      0       0       5        0.0%
SFR4                 0      0       0       5        0.0%
BITBANK1            50      0       0       6        0.0%
BITSFR5              0      0       0       6        0.0%
SFR5                 0      0       0       6        0.0%
BANK1               50      0       0       7        0.0%
BITSFR6              0      0       0       7        0.0%
SFR6                 0      0       0       7        0.0%
BITBANK2            50      0       0       8        0.0%
BITSFR7              0      0       0       8        0.0%
SFR7                 0      0       0       8        0.0%
BANK2               50      0       0       9        0.0%
BITSFR8              0      0       0       9        0.0%
SFR8                 0      0       0       9        0.0%
BITBANK3            50      0       0      10        0.0%
BITSFR9              0      0       0      10        0.0%
SFR9                 0      0       0      10        0.0%
BANK3               50      0       0      11        0.0%
BITSFR10             0      0       0      11        0.0%
SFR10                0      0       0      11        0.0%
BITBANK4            50      0       0      12        0.0%
BITSFR11             0      0       0      12        0.0%
SFR11                0      0       0      12        0.0%
BANK4               50      0       0      13        0.0%
BITSFR12             0      0       0      13        0.0%
SFR12                0      0       0      13        0.0%
BITBANK5            50      0       0      14        0.0%
BITSFR13             0      0       0      14        0.0%
SFR13                0      0       0      14        0.0%
BANK5               50      0       0      15        0.0%
BITSFR14             0      0       0      15        0.0%
SFR14                0      0       0      15        0.0%
BITBANK6            50      0       0      16        0.0%
BITSFR15             0      0       0      16        0.0%
SFR15                0      0       0      16        0.0%
BANK6               50      0       0      17        0.0%
BITSFR16             0      0       0      17        0.0%
SFR16                0      0       0      17        0.0%
BITBANK7            50      0       0      18        0.0%
BITSFR17             0      0       0      18        0.0%
SFR17                0      0       0      18        0.0%
BANK7               50      0       0      19        0.0%
BITSFR18             0      0       0      19        0.0%
SFR18                0      0       0      19        0.0%
BITSFR19             0      0       0      20        0.0%
SFR19                0      0       0      20        0.0%
ABS                  0      0      27      20        0.0%
BITBANK8            50      0       0      21        0.0%
BITSFR20             0      0       0      21        0.0%
SFR20                0      0       0      21        0.0%
BANK8               50      0       0      22        0.0%
BITSFR21             0      0       0      22        0.0%
SFR21                0      0       0      22        0.0%
BITBANK9            50      0       0      23        0.0%
BITSFR22             0      0       0      23        0.0%
SFR22                0      0       0      23        0.0%
BANK9               50      0       0      24        0.0%
BITSFR23             0      0       0      24        0.0%
SFR23                0      0       0      24        0.0%
BITBANK10           50      0       0      25        0.0%
BITSFR24             0      0       0      25        0.0%
SFR24                0      0       0      25        0.0%
BANK10              50      0       0      26        0.0%
BITSFR25             0      0       0      26        0.0%
SFR25                0      0       0      26        0.0%
BITBANK11           50      0       0      27        0.0%
BITSFR26             0      0       0      27        0.0%
SFR26                0      0       0      27        0.0%
BANK11              50      0       0      28        0.0%
BITSFR27             0      0       0      28        0.0%
SFR27                0      0       0      28        0.0%
BITBANK12           30      0       0      29        0.0%
BITSFR28             0      0       0      29        0.0%
SFR28                0      0       0      29        0.0%
BANK12              30      0       0      30        0.0%
BITSFR29             0      0       0      30        0.0%
SFR29                0      0       0      30        0.0%
BITSFR30             0      0       0      31        0.0%
SFR30                0      0       0      31        0.0%
DATA                 0      0      27      31        0.0%
BITSFR31             0      0       0      32        0.0%
SFR31                0      0       0      32        0.0%


Microchip Technology PIC Macro Assembler V1.37 build -260352376 
Symbol Table                                                                                   Tue May 23 00:01:09 2017

         ___bmul@product 0072              _SSPSTATbits 0214                       l60 0660  
                     l47 050F                       l59 065D              glcd_str@str 0029  
    ___wmul@multiplicand 0072                      l120 0789                      l121 078B  
                    l350 052D                      _RC0 0070                      _RC1 0071  
                    _RB3 006B                      _RD0 0078                      _RC2 0072  
                    _RB4 006C                      _RD1 0079                      _RD2 007A  
                    _RC5 0075                      _RD4 007C                      _RC6 0076  
                    _RD5 007D                      _RC7 0077                      _RD6 007E  
                    u830 0667                      u920 068E                      u904 0683  
                    u915 0686                      u860 0674                      u950 069B  
                    u934 0690                      u855 066C                      u945 0693  
                    u890 0681                      u874 0676                      u980 06A8  
                    u964 069D                      u885 0679                      u975 06A0  
                    u994 06AA             glcd_str@page 002C                      _cnt 0038  
                    wreg 0009           glcd_readbusy@i 0070             __CFG_LVP$OFF 0000  
                   l1112 0669                     l1114 06C4                     l1106 0650  
                   l1130 076A                     l1142 0794                     l1134 0774  
                   l1144 07EF                     l1234 0649                     l1228 062C  
                   l1156 0527                     l1244 0590                     l1190 0502  
                   l1186 04FC                     l1354 06FC                     _ADGO 04E9  
                   STR_1 0BE4                     STR_2 0C02                     STR_3 0BD2  
                   STR_4 0C10                     STR_5 0BC0                     STR_6 0BF4  
                   u1010 06B5                     u1005 06AD                     u1040 06C2  
                   u1024 06B7                     u1120 079F                     u1210 07C6  
                   u1035 06BA                     u1115 0797                     u1300 07ED  
                   u1205 07BE                     u1150 07AC                     u1134 07A1  
                   u1240 07D3                     u1224 07C8                     u1145 07A4  
                   u1090 0792                     u1235 07CB                     u1180 07B9  
                   u1164 07AE                     u1270 07E0                     u1254 07D5  
                   u1175 07B1                     u1335 052E                     u1265 07D8  
                   u1425 062A                     u1345 0533                     u1194 07BB  
                   u1435 0647                     u1284 07E2                     u1365 0515  
                   u1295 07E5                     u1375 05CE                     u1567 051B  
                   u1577 0563                     u1587 056C                     _Font 0800  
                   _main 06CC                     fsr0h 0005                     fsr0l 0004  
                   indf0 0000                     btemp 007E                     ltemp 007E  
                   start 0002                     ttemp 007E                     wtemp 007E  
          __CFG_IESO$OFF 0000          ??_glcd_readbusy 0070        ___bmul@multiplier 0073  
                  ?_main 0070            __CFG_WDTE$OFF 0000                    _PORTA 000C  
                  _PORTB 000D                    _PORTC 000E                    _PORTD 000F  
                  _PORTE 0010                    _TRISA 008C                    _TRISB 008D  
                  _TRISC 008E                    _TRISD 008F                    _TRISE 0090  
        ??_glcd_writelcd 0072            __CFG_PWRTE$ON 0000           __CFG_FCMEN$OFF 0000  
        __end_of_glcd_en 04FA                    ltemp0 007E                    ltemp1 0082  
                  ltemp2 0086                    ltemp3 0080                    ttemp0 007E  
                  ttemp1 0081                    ttemp2 0084                    ttemp3 0087  
                  ttemp4 007F                    status 0003                    wtemp0 007E  
                  wtemp1 0080                    wtemp2 0082                    wtemp3 0084  
                  wtemp4 0086                    wtemp5 0088                    wtemp6 007F  
        __initialization 07F7             __end_of_Font 0BC0             __end_of_main 0757  
                 ??_main 0032           __CFG_PLLEN$OFF 0000                   _ADCON0 009D  
                 _ADCON1 009E                   _ADRESH 009C                   _ADRESL 009B  
                 _ANSELA 018C                   _ANSELB 018D                   _ANSELD 018F  
                 _ANSELE 0190                   _FVRCON 0117                   _OSCCON 0099  
                 _SSPADD 0212                   _SSPBUF 0211         ??_glcd_writelcdd 0078  
       __end_of_delay_ms 0525         __end_of_glcd_chr 0603         __end_of_glcd_str 05C1  
                 ___bmul 04FA                   _addata 0034                   _adflag 0036  
                 ___wmul 0525                ??_glcd_en 0070  __end_of__initialization 07FD  
    ___bmul@multiplicand 0070           __pcstackCOMMON 0070        glcd_writelcdd@cmd 007A  
   glcd_writelcd@cselect 0071       __size_of_glcd_init 002E               __pbssBANK0 0034  
        glcd_writelcdd@c 0076               __pmaintext 06CC                  ?___bmul 0070  
                ?___wmul 0070                  _CM1CON0 0111                  _CM2CON0 0113  
             _glcd_clear 0603                ?_delay_ms 0070                ?_glcd_chr 007B  
                _SSPCON1 0215                  _SSPCON2 0216                ?_glcd_str 0029  
                _SSPSTAT 0214        __end_of_glcd_init 058D    __end_of_glcd_readbusy 055F  
        __size_of___bmul 0011          __size_of___wmul 001B          __CFG_STVREN$OFF 0000  
                __ptext1 058D                  __ptext2 05C1                  __ptext3 0525  
                __ptext4 050B                  __ptext5 04FA                  __ptext6 055F  
                __ptext7 0603                  __ptext8 0757                  __ptext9 064F  
                _glcd_en 04F2               ??_delay_ms 0072    __end_of_glcd_writelcd 06CC  
             ??_glcd_chr 0020               ??_glcd_str 002D     end_of_initialization 07FD  
           __pstringtext 0800              ?_glcd_clear 0070         __CFG_FOSC$INTOSC 0000  
              _TRISCbits 008E           __end_of___bmul 050B           __end_of___wmul 0540  
          delay_ms@count 0070      start_initialization 07F7       glcd_writelcdd@page 0077  
    __size_of_glcd_clear 004C                 ??___bmul 0071                 ??___wmul 0074  
__size_of_glcd_writelcdd 00A0                ___latbits 0003            __pcstackBANK0 0020  
      __size_of_delay_ms 001A         glcd_writelcd@cmd 0073         glcd_writelcdd@cl 0079  
      __size_of_glcd_chr 0042        __size_of_glcd_str 0034                _glcd_init 055F  
               ?_glcd_en 0070           ___wmul@product 0074               ?_glcd_init 0070  
              glcd_chr@c 007B                glcd_chr@i 0027               _ADCON0bits 009D  
              glcd_str@c 002B                glcd_str@i 0030        ___wmul@multiplier 0070  
           ??_glcd_clear 007B   __size_of_glcd_readbusy 001F       __end_of_glcd_clear 064F  
 __size_of_glcd_writelcd 007D           _glcd_writelcdd 0757         __size_of_glcd_en 0008  
               _delay_ms 050B                 __ptext10 0540                 __ptext11 04F2  
               _glcd_chr 05C1                 _glcd_str 058D            __size_of_main 008B  
 __end_of_glcd_writelcdd 07F7            _glcd_readbusy 0540              ??_glcd_init 0074  
            delay_ms@dly 0074            _glcd_writelcd 064F           ?_glcd_readbusy 0070  
        ?_glcd_writelcdd 0076           ?_glcd_writelcd 0071              _SSPCON2bits 0216  
           glcd_chr@page 007C             glcd_chr@moji 0026              glcd_clear@l 0020  
            glcd_clear@m 0022  
